(lp0
I5
aI6
aI3
aI3
aI3
aI4
aI7
aI7
aI6
aI2
aI5
aI6
aI1
aI5
aI7
aI7
aI4
aI5
aI2
aI4
aI3
aI1
aI2
aI2
aI3
aI7
aI3
aI1
aI5
aI5
aI6
aI1
aI2
aI6
aI5
aI3
aI5
aI3
aI5
aI4
aI2
aI1
aI7
aI5
aI4
aI5
aI6
aI3
aI6
aI7
aI5
aI6
aI6
aI2
aI4
aI3
aI2
aI7
aI1
aI6
aI2
aI4
aI2
aI3
aI1
aI1
aI4
aI1
aI3
aI4
aI1
aI1
aI4
aI2
aI4
aI2
aI1
aI3
aI7
aI2
aI5
aI5
aI4
aI2
aI7
aI6
aI6
aI3
aI6
aI1
aI5
aI4
aI1
aI2
aI3
aI4
aI4
aI7
aI6
aI2
aI3
aI5
aI7
aI4
aI1
aI6
aI2
aI7
aI4
aI3
aI3
aI5
aI7
aI5
aI1
aI4
aI5
aI4
aI1
aI1
aI4
aI1
aI7
aI6
aI4
aI7
aI7
aI1
aI7
aI4
aI3
aI7
aI1
aI2
aI2
aI7
aI5
aI5
aI4
aI4
aI3
aI5
aI1
aI5
aI3
aI5
aI3
aI1
aI3
aI5
aI2
aI1
aI3
aI5
aI3
aI7
aI7
aI7
aI4
aI2
aI2
aI4
aI6
aI2
aI7
aI2
aI4
aI5
aI5
aI7
aI2
aI6
aI1
aI3
aI5
aI4
aI1
aI3
aI7
aI3
aI1
aI3
aI6
aI2
aI2
aI7
aI4
aI7
aI4
aI5
aI5
aI1
aI7
aI1
aI6
aI7
aI4
aI4
aI2
aI6
aI4
aI1
aI6
aI5
aI7
aI5
aI1
aI4
aI2
aI4
aI5
aI2
aI4
aI7
aI7
aI6
aI2
aI1
aI3
aI2
aI1
aI4
aI5
aI3
aI4
aI1
aI4
aI3
aI6
aI6
aI5
aI5
aI2
aI6
aI6
aI4
aI4
aI4
aI2
aI6
aI7
aI7
aI1
aI1
aI2
aI5
aI5
aI2
aI5
aI5
aI2
aI7
aI3
aI1
aI3
aI6
aI1
aI6
aI5
aI7
aI3
aI3
aI4
aI4
aI1
aI2
aI7
aI2
aI4
aI2
aI7
aI7
aI1
aI3
aI3
aI4
aI7
aI4
aI5
aI5
aI4
aI3
aI3
aI2
aI7
aI7
aI7
aI7
aI4
aI6
aI6
aI7
aI4
aI5
aI5
aI5
aI6
aI1
aI4
aI1
aI7
aI5
aI5
aI2
aI1
aI5
aI6
aI1
aI6
aI6
aI5
aI4
aI7
aI4
aI2
aI3
aI7
aI4
aI4
aI1
aI1
aI4
aI1
aI5
aI2
aI6
aI4
aI4
aI1
aI2
aI5
aI3
aI5
aI5
aI5
aI5
aI5
aI5
aI4
aI1
aI5
aI7
aI3
aI3
aI5
aI5
aI1
aI3
aI3
aI6
aI5
aI1
aI3
aI1
aI5
aI3
aI7
aI7
aI4
aI1
aI6
aI2
aI2
aI6
aI5
aI3
aI4
aI1
aI1
aI1
aI2
aI1
aI2
aI5
aI5
aI5
aI1
aI7
aI2
aI1
aI4
aI4
aI4
aI2
aI6
aI3
aI2
aI5
aI4
aI1
aI7
aI3
aI5
aI5
aI6
aI5
aI7
aI1
aI4
aI5
aI4
aI7
aI4
aI2
aI4
aI6
aI7
aI6
aI1
aI2
aI6
aI1
aI4
aI2
aI3
aI7
aI6
aI6
aI7
aI7
aI5
aI4
aI6
aI1
aI7
aI1
aI4
aI4
aI1
aI2
aI3
aI5
aI4
aI6
aI2
aI3
aI7
aI2
aI4
aI5
aI3
aI3
aI2
aI5
aI4
aI5
aI7
aI6
aI6
aI5
aI6
aI6
aI5
aI3
aI6
aI4
aI2
aI2
aI4
aI4
aI1
aI7
aI5
aI7
aI2
aI3
aI2
aI4
aI7
aI1
aI7
aI6
aI7
aI1
aI6
aI2
aI7
aI6
aI3
aI7
aI2
aI1
aI7
aI3
aI2
aI1
aI1
aI4
aI1
aI2
aI2
aI2
aI4
aI7
aI1
aI1
aI1
aI2
aI1
aI6
aI5
aI3
aI7
aI6
aI2
aI1
aI4
aI1
aI2
aI6
aI6
aI5
aI5
aI3
aI6
aI2
aI7
aI5
aI5
aI5
aI2
aI2
aI7
aI4
aI3
aI2
aI6
aI2
aI4
aI3
aI3
aI2
aI1
aI5
aI7
aI5
aI6
aI6
aI3
aI6
aI4
aI1
aI3
aI6
aI4
aI4
aI3
aI5
aI2
aI6
aI6
aI3
aI3
aI1
aI6
aI3
aI7
aI6
aI6
aI7
aI2
aI3
aI1
aI3
aI2
aI5
aI7
aI2
aI6
aI4
aI6
aI7
aI4
aI2
aI7
aI4
aI3
aI3
aI4
aI4
aI3
aI1
aI3
aI5
aI7
aI6
aI2
aI7
aI2
aI1
aI6
aI7
aI4
aI3
aI4
aI2
aI5
aI7
aI7
aI2
aI7
aI6
aI6
aI7
aI3
aI6
aI6
aI1
aI6
aI6
aI4
aI4
aI5
aI3
aI5
aI6
aI6
aI1
aI1
aI3
aI1
aI7
aI5
aI6
aI1
aI3
aI5
aI6
aI5
aI1
aI6
aI4
aI5
aI4
aI3
aI6
aI4
aI1
aI3
aI7
aI2
aI7
aI2
aI3
aI5
aI6
aI2
aI7
aI3
aI5
aI2
aI4
aI6
aI5
aI1
aI6
aI6
aI2
aI7
aI3
aI3
aI4
aI6
aI1
aI7
aI6
aI4
aI5
aI3
aI3
aI4
aI1
aI1
aI6
aI4
aI7
aI6
aI5
aI3
aI1
aI3
aI6
aI3
aI5
aI6
aI7
aI1
aI6
aI6
aI2
aI2
aI6
aI6
aI2
aI4
aI5
aI4
aI1
aI6
aI6
aI4
aI6
aI4
aI1
aI3
aI2
aI7
aI4
aI6
aI4
aI1
aI2
aI6
aI6
aI7
aI4
aI3
aI3
aI1
aI3
aI3
aI3
aI5
aI4
aI4
aI6
aI7
aI3
aI5
aI4
aI3
aI4
aI2
aI7
aI4
aI4
aI4
aI7
aI1
aI3
aI1
aI5
aI1
aI7
aI7
aI4
aI2
aI7
aI1
aI2
aI5
aI2
aI3
aI4
aI7
aI5
aI4
aI4
aI7
aI1
aI4
aI2
aI4
aI6
aI2
aI2
aI4
aI4
aI5
aI7
aI3
aI6
aI2
aI7
aI2
aI6
aI1
aI6
aI2
aI2
aI2
aI7
aI6
aI7
aI7
aI3
aI4
aI5
aI5
aI6
aI5
aI6
aI7
aI5
aI5
aI1
aI3
aI7
aI6
aI6
aI6
aI3
aI5
aI3
aI3
aI3
aI4
aI5
aI6
aI7
aI5
aI2
aI2
aI7
aI4
aI3
aI5
aI5
aI7
aI1
aI1
aI4
aI1
aI5
aI1
aI2
aI4
aI3
aI3
aI3
aI6
aI2
aI1
aI1
aI2
aI7
aI3
aI3
aI2
aI3
aI7
aI4
aI2
aI2
aI6
aI4
aI6
aI1
aI7
aI3
aI7
aI6
aI1
aI5
aI5
aI2
aI2
aI5
aI6
aI3
aI6
aI4
aI7
aI3
aI6
aI2
aI6
aI5
aI2
aI1
aI7
aI3
aI7
aI2
aI7
aI4
aI4
aI5
aI2
aI5
aI1
aI5
aI1
aI4
aI7
aI5
aI3
aI6
aI7
aI3
aI2
aI1
aI6
aI6
aI5
aI6
aI3
aI1
aI3
aI1
aI2
aI6
aI3
aI4
aI5
aI1
aI2
aI7
aI1
aI1
aI6
aI1
aI1
aI1
aI3
aI3
aI6
aI6
aI3
aI6
aI6
aI4
aI4
aI3
aI1
aI2
aI7
aI3
aI2
aI1
aI7
aI2
aI6
aI5
aI6
aI6
aI1
aI1
aI4
aI5
aI3
aI5
aI6
aI3
aI4
aI3
aI3
aI4
aI5
aI7
aI2
aI7
aI5
aI2
aI3
aI1
aI5
aI2
aI1
aI1
aI2
aI7
aI4
aI5
aI2
aI5
aI3
aI7
aI2
aI3
aI6
aI7
aI5
aI5
aI3
aI3
aI4
aI7
aI1
aI2
aI3
aI7
aI2
aI2
aI1
aI2
aI4
aI1
aI5
aI7
aI7
aI5
aI4
aI6
aI4
aI2
aI6
aI6
aI5
aI5
aI7
aI5
aI5
aI4
aI5
aI6
aI4
aI7
aI6
aI7
aI1
aI2
aI2
aI3
aI6
aI5
aI7
aI5
aI5
aI4
aI2
aI4
aI3
aI7
aI5
aI4
aI7
aI5
aI2
aI7
aI5
aI3
aI1
aI5
aI1
aI2
aI5
aI6
aI4
aI2
aI7
aI7
aI7
aI6
aI1
aI1
aI4
aI1
aI2
aI3
aI5
aI3
aI2
aI5
aI6
aI2
aI1
aI1
aI3
aI1
aI6
aI4
aI7
aI4
aI4
aI1
aI5
aI4
aI7
aI4
aI5
aI5
aI2
aI3
aI6
aI7
aI6
aI4
aI4
aI6
aI3
aI3
aI6
aI5
aI2
aI2
aI4
aI3
aI7
aI3
aI4
aI6
aI6
aI5
aI6
aI6
aI2
aI2
aI5
aI2
aI2
aI2
aI1
aI2
aI2
aI2
aI7
aI1
aI6
aI7
aI1
aI5
aI7
aI4
aI3
aI3
aI3
aI6
aI5
aI5
aI1
aI6
aI7
aI5
aI1
aI3
aI3
aI1
aI4
aI4
aI7
aI1
aI2
aI2
aI4
aI7
aI4
aI1
aI4
aI1
aI3
aI2
aI4
aI3
aI3
aI7
aI1
aI4
aI6
aI6
aI3
aI2
aI6
aI1
aI7
aI1
aI6
aI6
aI6
aI5
aI6
aI7
aI5
aI4
aI1
aI6
aI7
aI5
aI6
aI2
aI5
aI4
aI4
aI3
aI4
aI2
aI4
aI2
aI2
aI1
aI1
aI4
aI5
aI3
aI3
aI4
aI7
aI5
aI4
aI6
aI6
aI6
aI4
aI1
aI6
aI1
aI6
aI7
aI6
aI1
aI7
aI7
aI4
aI1
aI4
aI3
aI3
aI1
aI2
aI5
aI6
aI5
aI4
aI5
aI4
aI3
aI4
aI1
aI7
aI5
aI2
aI3
aI5
aI4
aI3
aI5
aI5
aI2
aI4
aI1
aI5
aI4
aI1
aI6
aI7
aI1
aI3
aI5
aI6
aI1
aI3
aI4
aI1
aI2
aI5
aI1
aI6
aI5
aI4
aI3
aI4
aI1
aI4
aI6
aI6
aI5
aI2
aI5
aI5
aI5
aI2
aI6
aI3
aI7
aI4
aI5
aI1
aI5
aI6
aI4
aI7
aI7
aI5
aI7
aI7
aI1
aI3
aI5
aI4
aI1
aI4
aI7
aI3
aI4
aI4
aI5
aI7
aI1
aI1
aI1
aI1
aI5
aI4
aI5
aI6
aI6
aI6
aI6
aI4
aI4
aI1
aI1
aI3
aI1
aI2
aI3
aI1
aI1
aI6
aI3
aI1
aI1
aI5
aI4
aI2
aI6
aI1
aI1
aI3
aI5
aI5
aI5
aI4
aI6
aI1
aI3
aI2
aI1
aI7
aI4
aI1
aI6
aI2
aI6
aI7
aI5
aI2
aI1
aI3
aI1
aI6
aI5
aI7
aI7
aI7
aI5
aI4
aI1
aI2
aI6
aI7
aI6
aI2
aI5
aI1
aI1
aI4
aI3
aI7
aI1
aI5
aI4
aI5
aI2
aI1
aI3
aI4
aI6
aI5
aI4
aI6
aI7
aI6
aI6
aI5
aI1
aI2
aI2
aI3
aI3
aI4
aI3
aI4
aI3
aI1
aI2
aI7
aI5
aI7
aI7
aI6
aI4
aI4
aI3
aI3
aI5
aI4
aI3
aI4
aI1
aI6
aI6
aI4
aI4
aI3
aI3
aI2
aI6
aI3
aI3
aI6
aI1
aI7
aI4
aI3
aI3
aI2
aI3
aI5
aI2
aI2
aI2
aI5
aI5
aI1
aI6
aI4
aI6
aI3
aI1
aI4
aI3
aI4
aI3
aI3
aI7
aI7
aI7
aI2
aI2
aI4
aI5
aI1
aI7
aI5
aI1
aI4
aI2
aI3
aI7
aI3
aI2
aI4
aI3
aI4
aI2
aI5
aI5
aI5
aI7
aI4
aI7
aI2
aI3
aI4
aI7
aI1
aI7
aI3
aI2
aI2
aI7
aI2
aI2
aI4
aI6
aI3
aI2
aI5
aI3
aI4
aI6
aI5
aI4
aI7
aI2
aI2
aI1
aI4
aI4
aI7
aI6
aI1
aI2
aI4
aI1
aI4
aI4
aI6
aI1
aI7
aI4
aI1
aI3
aI6
aI6
aI6
aI7
aI3
aI2
aI4
aI1
aI7
aI1
aI7
aI7
aI6
aI6
aI2
aI5
aI3
aI5
aI2
aI7
aI3
aI1
aI5
aI6
aI2
aI2
aI5
aI7
aI6
aI4
aI6
aI4
aI3
aI3
aI7
aI7
aI1
aI7
aI5
aI5
aI7
aI6
aI6
aI3
aI2
aI4
aI2
aI7
aI1
aI1
aI1
aI4
aI2
aI1
aI3
aI5
aI4
aI2
aI1
aI1
aI6
aI5
aI1
aI5
aI2
aI5
aI7
aI6
aI2
aI3
aI3
aI7
aI2
aI6
aI4
aI7
aI6
aI1
aI5
aI6
aI4
aI7
aI2
aI2
aI2
aI6
aI2
aI6
aI1
aI4
aI2
aI4
aI5
aI3
aI1
aI4
aI2
aI4
aI3
aI7
aI5
aI4
aI7
aI4
aI4
aI7
aI6
aI6
aI2
aI4
aI3
aI2
aI5
aI2
aI3
aI4
aI7
aI5
aI6
aI3
aI4
aI5
aI6
aI4
aI1
aI1
aI3
aI6
aI4
aI5
aI4
aI4
aI2
aI4
aI7
aI2
aI2
aI4
aI5
aI6
aI7
aI1
aI1
aI4
aI2
aI7
aI5
aI3
aI3
aI3
aI5
aI1
aI7
aI7
aI1
aI6
aI5
aI3
aI6
aI5
aI3
aI1
aI5
aI1
aI2
aI7
aI2
aI6
aI3
aI5
aI6
aI3
aI6
aI1
aI2
aI7
aI7
aI7
aI4
aI6
aI1
aI4
aI7
aI3
aI3
aI2
aI4
aI5
aI7
aI7
aI6
aI1
aI5
aI6
aI1
aI4
aI3
aI7
aI5
aI6
aI7
aI7
aI1
aI4
aI6
aI4
aI4
aI4
aI4
aI5
aI4
aI2
aI6
aI1
aI4
aI3
aI1
aI3
aI3
aI4
aI6
aI5
aI7
aI1
aI7
aI1
aI6
aI4
aI7
aI7
aI3
aI7
aI6
aI2
aI7
aI3
aI1
aI4
aI3
aI1
aI7
aI5
aI3
aI6
aI2
aI7
aI4
aI3
aI1
aI4
aI5
aI1
aI1
aI3
aI2
aI4
aI7
aI7
aI2
aI5
aI5
aI2
aI3
aI7
aI7
aI7
aI6
aI7
aI3
aI1
aI1
aI4
aI3
aI3
aI3
aI5
aI5
aI7
aI1
aI3
aI3
aI2
aI3
aI4
aI5
aI3
aI2
aI4
aI3
aI6
aI5
aI5
aI6
aI5
aI6
aI5
aI3
aI1
aI6
aI6
aI4
aI4
aI5
aI6
aI3
aI7
aI3
aI2
aI4
aI4
aI5
aI6
aI7
aI4
aI5
aI4
aI4
aI7
aI2
aI3
aI3
aI6
aI3
aI6
aI3
aI4
aI7
aI7
aI3
aI4
aI5
aI4
aI1
aI2
aI4
aI3
aI1
aI7
aI1
aI7
aI6
aI5
aI6
aI5
aI3
aI4
aI7
aI3
aI7
aI2
aI4
aI5
aI2
aI2
aI3
aI1
aI7
aI2
aI1
aI5
aI2
aI6
aI5
aI1
aI7
aI2
aI7
aI2
aI4
aI2
aI2
aI2
aI6
aI4
aI1
aI7
aI3
aI4
aI5
aI3
aI6
aI7
aI7
aI6
aI2
aI1
aI5
aI6
aI3
aI2
aI1
aI5
aI7
aI6
aI5
aI3
aI5
aI7
aI2
aI6
aI1
aI3
aI3
aI4
aI7
aI1
aI2
aI7
aI7
aI7
aI5
aI2
aI4
aI7
aI6
aI4
aI4
aI2
aI2
aI7
aI5
aI4
aI5
aI3
aI4
aI7
aI4
aI7
aI2
aI5
aI2
aI2
aI1
aI3
aI4
aI2
aI1
aI1
aI2
aI1
aI6
aI5
aI5
aI6
aI3
aI7
aI7
aI4
aI4
aI1
aI4
aI3
aI7
aI7
aI7
aI7
aI3
aI3
aI3
aI3
aI2
aI7
aI3
aI7
aI5
aI5
aI3
aI4
aI3
aI1
aI1
aI7
aI5
aI7
aI6
aI7
aI5
aI3
aI2
aI4
aI5
aI3
aI5
aI1
aI4
aI6
aI6
aI2
aI1
aI2
aI4
aI6
aI4
aI5
aI3
aI5
aI3
aI5
aI7
aI7
aI7
aI3
aI4
aI2
aI5
aI1
aI3
aI1
aI7
aI1
aI5
aI6
aI2
aI4
aI4
aI6
aI2
aI3
aI5
aI7
aI4
aI2
aI1
aI5
aI1
aI5
aI1
aI4
aI1
aI4
aI6
aI6
aI6
aI2
aI5
aI3
aI7
aI6
aI6
aI1
aI1
aI6
aI7
aI3
aI6
aI6
aI3
aI6
aI6
aI6
aI3
aI2
aI7
aI2
aI3
aI2
aI2
aI3
aI4
aI2
aI7
aI5
aI2
aI4
aI6
aI6
aI3
aI7
aI3
aI5
aI2
aI3
aI2
aI5
aI6
aI7
aI6
aI5
aI6
aI6
aI3
aI7
aI3
aI6
aI1
aI7
aI3
aI5
aI7
aI5
aI1
aI3
aI4
aI1
aI6
aI7
aI7
aI7
aI4
aI5
aI1
aI5
aI2
aI1
aI5
aI7
aI2
aI3
aI7
aI6
aI4
aI4
aI4
aI6
aI5
aI6
aI3
aI6
aI1
aI2
aI4
aI4
aI4
aI2
aI6
aI5
aI2
aI7
aI4
aI3
aI3
aI5
aI2
aI6
aI1
aI4
aI1
aI4
aI5
aI3
aI7
aI7
aI7
aI1
aI6
aI4
aI4
aI6
aI5
aI1
aI3
aI1
aI2
aI4
aI1
aI1
aI2
aI5
aI7
aI6
aI1
aI1
aI5
aI5
aI6
aI3
aI5
aI1
aI4
aI3
aI6
aI1
aI2
aI4
aI4
aI4
aI2
aI3
aI7
aI5
aI3
aI3
aI3
aI6
aI4
aI6
aI2
aI1
aI6
aI7
aI1
aI1
aI6
aI5
aI4
aI2
aI3
aI4
aI1
aI2
aI2
aI6
aI4
aI2
aI7
aI6
aI4
aI5
aI6
aI7
aI5
aI5
aI2
aI3
aI4
aI1
aI6
aI2
aI1
aI2
aI1
aI2
aI4
aI6
aI1
aI4
aI6
aI1
aI2
aI2
aI1
aI1
aI7
aI1
aI1
aI5
aI7
aI6
aI2
aI2
aI4
aI3
aI2
aI5
aI4
aI3
aI4
aI2
aI6
aI5
aI7
aI1
aI1
aI6
aI3
aI2
aI5
aI5
aI4
aI5
aI6
aI7
aI7
aI3
aI6
aI2
aI6
aI6
aI2
aI2
aI2
aI4
aI4
aI4
aI1
aI1
aI2
aI5
aI1
aI2
aI1
aI2
aI6
aI3
aI3
aI7
aI6
aI2
aI2
aI5
aI7
aI5
aI2
aI6
aI7
aI6
aI4
aI6
aI4
aI7
aI3
aI7
aI5
aI3
aI7
aI4
aI6
aI1
aI2
aI5
aI3
aI6
aI2
aI4
aI2
aI5
aI1
aI1
aI2
aI2
aI4
aI6
aI6
aI7
aI7
aI3
aI1
aI1
aI3
aI3
aI6
aI5
aI2
aI2
aI1
aI7
aI4
aI4
aI1
aI4
aI5
aI5
aI3
aI3
aI6
aI2
aI4
aI6
aI5
aI6
aI5
aI4
aI4
aI1
aI5
aI5
aI6
aI3
aI7
aI3
aI7
aI6
aI4
aI1
aI2
aI5
aI2
aI7
aI1
aI2
aI1
aI6
aI4
aI6
aI7
aI6
aI4
aI2
aI6
aI7
aI6
aI3
aI2
aI4
aI7
aI7
aI4
aI4
aI4
aI6
aI1
aI4
aI5
aI3
aI5
aI5
aI4
aI7
aI7
aI7
aI6
aI7
aI4
aI3
aI4
aI1
aI2
aI5
aI2
aI6
aI6
aI1
aI6
aI5
aI4
aI4
aI2
aI7
aI1
aI6
aI4
aI6
aI1
aI6
aI7
aI1
aI3
aI3
aI2
aI4
aI5
aI2
aI5
aI2
aI2
aI2
aI2
aI6
aI3
aI6
aI7
aI7
aI1
aI2
aI2
aI6
aI6
aI1
aI1
aI1
aI3
aI2
aI1
aI7
aI1
aI1
aI4
aI7
aI6
aI3
aI6
aI3
aI1
aI2
aI1
aI5
aI4
aI4
aI2
aI1
aI1
aI1
aI4
aI7
aI3
aI5
aI5
aI7
aI3
aI2
aI3
aI2
aI3
aI1
aI2
aI1
aI7
aI7
aI7
aI4
aI6
aI6
aI3
aI2
aI1
aI6
aI6
aI1
aI6
aI7
aI2
aI5
aI5
aI7
aI5
aI3
aI3
aI4
aI4
aI6
aI6
aI7
aI2
aI2
aI2
aI3
aI1
aI3
aI6
aI1
aI1
aI2
aI1
aI5
aI1
aI6
aI7
aI5
aI7
aI2
aI6
aI3
aI1
aI5
aI4
aI2
aI7
aI7
aI6
aI3
aI3
aI6
aI6
aI7
aI1
aI2
aI4
aI3
aI4
aI3
aI4
aI2
aI2
aI6
aI4
aI1
aI2
aI7
aI4
aI4
aI5
aI3
aI1
aI2
aI2
aI3
aI4
aI7
aI2
aI4
aI3
aI1
aI1
aI7
aI4
aI4
aI5
aI5
aI2
aI4
aI1
aI4
aI2
aI6
aI6
aI7
aI6
aI1
aI5
aI4
aI6
aI7
aI7
aI4
aI4
aI1
aI3
aI3
aI7
aI6
aI2
aI7
aI4
aI1
aI6
aI7
aI5
aI6
aI3
aI7
aI6
aI6
aI5
aI7
aI2
aI3
aI1
aI3
aI6
aI7
aI3
aI7
aI3
aI4
aI7
aI1
aI2
aI3
aI6
aI4
aI7
aI6
aI5
aI5
aI4
aI6
aI1
aI4
aI6
aI1
aI3
aI7
aI4
aI5
aI2
aI6
aI3
aI3
aI7
aI4
aI1
aI7
aI1
aI2
aI2
aI3
aI5
aI5
aI3
aI4
aI4
aI3
aI3
aI4
aI6
aI1
aI1
aI4
aI1
aI5
aI2
aI1
aI4
aI7
aI5
aI4
aI6
aI6
aI3
aI3
aI4
aI1
aI6
aI5
aI5
aI2
aI2
aI5
aI2
aI1
aI6
aI2
aI1
aI3
aI4
aI5
aI1
aI3
aI7
aI5
aI7
aI5
aI3
aI7
aI3
aI1
aI7
aI5
aI7
aI6
aI4
aI3
aI6
aI1
aI5
aI1
aI6
aI7
aI3
aI2
aI5
aI3
aI3
aI2
aI7
aI5
aI4
aI7
aI4
aI6
aI7
aI4
aI5
aI6
aI3
aI5
aI3
aI3
aI4
aI5
aI6
aI5
aI6
aI3
aI1
aI2
aI3
aI1
aI5
aI5
aI7
aI6
aI2
aI4
aI3
aI2
aI6
aI1
aI5
aI1
aI7
aI7
aI5
aI7
aI5
aI3
aI7
aI2
aI1
aI6
aI1
aI1
aI6
aI2
aI1
aI4
aI4
aI5
aI7
aI3
aI6
aI4
aI4
aI3
aI5
aI2
aI6
aI6
aI3
aI6
aI6
aI6
aI5
aI2
aI4
aI1
aI4
aI1
aI5
aI4
aI6
aI4
aI6
aI2
aI2
aI2
aI4
aI6
aI5
aI1
aI6
aI6
aI7
aI7
aI1
aI5
aI2
aI5
aI6
aI7
aI1
aI6
aI5
aI4
aI3
aI1
aI2
aI5
aI5
aI5
aI6
aI1
aI7
aI7
aI4
aI3
aI7
aI3
aI1
aI7
aI4
aI2
aI7
aI3
aI2
aI3
aI5
aI7
aI2
aI6
aI3
aI5
aI5
aI6
aI1
aI5
aI1
aI6
aI7
aI2
aI7
aI5
aI7
aI5
aI7
aI7
aI6
aI7
aI7
aI3
aI4
aI7
aI3
aI5
aI7
aI5
aI3
aI5
aI4
aI2
aI2
aI1
aI4
aI4
aI1
aI7
aI6
aI1
aI3
aI4
aI1
aI3
aI6
aI6
aI6
aI1
aI7
aI5
aI2
aI1
aI5
aI3
aI7
aI3
aI6
aI4
aI2
aI5
aI1
aI6
aI6
aI1
aI3
aI2
aI4
aI3
aI4
aI7
aI1
aI7
aI2
aI3
aI2
aI2
aI7
aI3
aI1
aI3
aI1
aI1
aI7
aI3
aI2
aI2
aI7
aI5
aI7
aI4
aI7
aI3
aI7
aI1
aI5
aI7
aI1
aI4
aI5
aI1
aI3
aI7
aI6
aI7
aI7
aI3
aI4
aI5
aI3
aI2
aI6
aI7
aI1
aI5
aI3
aI6
aI5
aI3
aI2
aI2
aI7
aI6
aI4
aI1
aI1
aI4
aI5
aI4
aI1
aI6
aI1
aI2
aI7
aI7
aI1
aI6
aI5
aI2
aI5
aI7
aI3
aI5
aI6
aI3
aI3
aI1
aI1
aI6
aI1
aI5
aI3
aI3
aI5
aI5
aI4
aI6
aI7
aI7
aI5
aI1
aI6
aI6
aI2
aI7
aI4
aI2
aI5
aI5
aI1
aI7
aI6
aI3
aI2
aI5
aI1
aI3
aI7
aI1
aI4
aI1
aI6
aI3
aI7
aI1
aI7
aI7
aI2
aI4
aI7
aI3
aI4
aI1
aI7
aI7
aI7
aI1
aI2
aI7
aI4
aI7
aI3
aI5
aI4
aI6
aI5
aI7
aI2
aI3
aI2
aI7
aI1
aI4
aI6
aI7
aI1
aI6
aI5
aI1
aI3
aI5
aI2
aI1
aI2
aI1
aI3
aI1
aI3
aI6
aI3
aI2
aI2
aI2
aI2
aI7
aI2
aI1
aI7
aI5
aI4
aI6
aI6
aI3
aI2
aI5
aI7
aI6
aI7
aI2
aI5
aI6
aI5
aI7
aI4
aI4
aI2
aI7
aI3
aI3
aI1
aI5
aI1
aI3
aI1
aI4
aI1
aI7
aI3
aI3
aI3
aI2
aI6
aI5
aI6
aI6
aI4
aI2
aI5
aI5
aI3
aI6
aI1
aI1
aI2
aI6
aI1
aI3
aI5
aI4
aI7
aI3
aI2
aI5
aI6
aI5
aI4
aI5
aI6
aI2
aI3
aI1
aI5
aI4
aI2
aI1
aI6
aI4
aI6
aI2
aI4
aI3
aI3
aI7
aI2
aI3
aI4
aI4
aI1
aI7
aI1
aI2
aI5
aI3
aI4
aI4
aI5
aI4
aI5
aI7
aI6
aI7
aI3
aI6
aI2
aI6
aI4
aI6
aI1
aI7
aI2
aI5
aI1
aI4
aI7
aI5
aI3
aI6
aI6
aI6
aI3
aI1
aI7
aI3
aI1
aI5
aI7
aI2
aI5
aI7
aI4
aI2
aI4
aI6
aI5
aI4
aI1
aI1
aI1
aI4
aI4
aI2
aI1
aI2
aI4
aI5
aI7
aI3
aI2
aI4
aI2
aI7
aI6
aI7
aI1
aI4
aI3
aI2
aI6
aI7
aI1
aI2
aI6
aI7
aI5
aI5
aI1
aI7
aI4
aI2
aI7
aI5
aI5
aI2
aI7
aI4
aI3
aI3
aI6
aI5
aI3
aI4
aI2
aI3
aI6
aI5
aI2
aI2
aI2
aI1
aI4
aI3
aI1
aI1
aI1
aI7
aI3
aI3
aI5
aI7
aI3
aI5
aI2
aI3
aI4
aI5
aI5
aI7
aI1
aI6
aI7
aI1
aI1
aI5
aI3
aI3
aI5
aI4
aI7
aI3
aI6
aI4
aI5
aI4
aI5
aI5
aI7
aI4
aI3
aI3
aI1
aI6
aI6
aI3
aI1
aI4
aI2
aI2
aI5
aI3
aI5
aI4
aI5
aI1
aI2
aI5
aI5
aI7
aI6
aI5
aI5
aI6
aI2
aI5
aI6
aI1
aI5
aI4
aI2
aI4
aI5
aI2
aI4
aI4
aI7
aI1
aI5
aI5
aI4
aI5
aI1
aI1
aI4
aI5
aI6
aI2
aI5
aI6
aI4
aI5
aI4
aI5
aI1
aI5
aI6
aI3
aI3
aI3
aI2
aI1
aI3
aI5
aI2
aI1
aI2
aI5
aI4
aI5
aI2
aI2
aI2
aI6
aI1
aI3
aI5
aI5
aI2
aI7
aI5
aI7
aI4
aI1
aI6
aI4
aI6
aI5
aI7
aI7
aI5
aI5
aI4
aI4
aI1
aI3
aI4
aI2
aI6
aI3
aI3
aI7
aI6
aI1
aI1
aI7
aI5
aI6
aI2
aI3
aI4
aI4
aI3
aI3
aI2
aI5
aI5
aI4
aI3
aI7
aI3
aI7
aI7
aI7
aI3
aI1
aI6
aI5
aI2
aI4
aI6
aI6
aI3
aI4
aI3
aI4
aI3
aI6
aI4
aI1
aI4
aI7
aI6
aI6
aI5
aI1
aI3
aI6
aI4
aI1
aI5
aI1
aI2
aI1
aI5
aI7
aI4
aI7
aI2
aI1
aI7
aI3
aI2
aI2
aI1
aI5
aI5
aI5
aI6
aI2
aI4
aI7
aI7
aI1
aI6
aI5
aI6
aI4
aI7
aI1
aI7
aI7
aI7
aI4
aI1
aI3
aI7
aI6
aI3
aI6
aI5
aI6
aI2
aI7
aI5
aI7
aI4
aI6
aI5
aI3
aI1
aI4
aI7
aI6
aI4
aI7
aI3
aI7
aI3
aI4
aI6
aI1
aI6
aI6
aI7
aI6
aI3
aI1
aI5
aI6
aI6
aI5
aI3
aI2
aI3
aI1
aI4
aI4
aI6
aI3
aI6
aI6
aI7
aI6
aI5
aI2
aI4
aI6
aI4
aI4
aI1
aI6
aI5
aI4
aI2
aI6
aI3
aI5
aI1
aI1
aI4
aI2
aI6
aI6
aI6
aI4
aI5
aI3
aI6
aI6
aI5
aI3
aI5
aI1
aI5
aI6
aI3
aI1
aI4
aI7
aI2
aI2
aI2
aI2
aI6
aI5
aI3
aI1
aI5
aI4
aI6
aI6
aI6
aI3
aI6
aI1
aI7
aI1
aI1
aI1
aI3
aI1
aI5
aI4
aI2
aI1
aI3
aI4
aI5
aI5
aI5
aI7
aI4
aI3
aI7
aI4
aI4
aI1
aI2
aI6
aI1
aI6
aI6
aI2
aI2
aI5
aI6
aI3
aI5
aI1
aI6
aI2
aI1
aI3
aI1
aI2
aI4
aI5
aI2
aI2
aI6
aI6
aI5
aI6
aI7
aI2
aI2
aI6
aI4
aI5
aI2
aI1
aI5
aI3
aI3
aI5
aI5
aI3
aI4
aI5
aI2
aI5
aI3
aI3
aI5
aI5
aI1
aI6
aI4
aI3
aI2
aI2
aI7
aI6
aI1
aI5
aI3
aI2
aI2
aI6
aI7
aI4
aI5
aI1
aI4
aI4
aI1
aI2
aI2
aI6
aI1
aI7
aI3
aI1
aI1
aI5
aI2
aI1
aI4
aI7
aI1
aI6
aI1
aI1
aI4
aI2
aI7
aI5
aI4
aI6
aI5
aI2
aI1
aI5
aI7
aI3
aI4
aI7
aI2
aI4
aI6
aI4
aI3
aI5
aI7
aI1
aI4
aI7
aI2
aI3
aI3
aI7
aI2
aI6
aI5
aI2
aI5
aI1
aI1
aI2
aI2
aI1
aI4
aI7
aI5
aI3
aI1
aI4
aI4
aI3
aI5
aI7
aI2
aI7
aI5
aI7
aI7
aI5
aI2
aI3
aI3
aI2
aI5
aI4
aI6
aI4
aI2
aI2
aI5
aI3
aI6
aI6
aI5
aI6
aI2
aI6
aI1
aI7
aI3
aI2
aI3
aI3
aI6
aI1
aI4
aI1
aI4
aI4
aI7
aI5
aI6
aI3
aI6
aI3
aI4
aI4
aI2
aI4
aI5
aI4
aI3
aI3
aI2
aI6
aI4
aI7
aI1
aI2
aI7
aI6
aI6
aI7
aI4
aI3
aI5
aI5
aI5
aI7
aI1
aI1
aI5
aI7
aI4
aI2
aI6
aI6
aI6
aI7
aI2
aI5
aI3
aI5
aI1
aI7
aI4
aI4
aI1
aI6
aI2
aI5
aI7
aI6
aI7
aI1
aI1
aI3
aI7
aI6
aI5
aI3
aI5
aI6
aI4
aI3
aI4
aI2
aI7
aI5
aI1
aI5
aI3
aI1
aI4
aI6
aI3
aI7
aI4
aI2
aI5
aI1
aI1
aI4
aI5
aI2
aI6
aI5
aI1
aI3
aI7
aI1
aI6
aI6
aI3
aI3
aI5
aI2
aI5
aI7
aI6
aI5
aI2
aI7
aI4
aI2
aI2
aI3
aI5
aI7
aI5
aI4
aI5
aI6
aI6
aI6
aI6
aI1
aI5
aI1
aI4
aI7
aI2
aI5
aI5
aI3
aI6
aI6
aI4
aI7
aI7
aI6
aI2
aI2
aI6
aI5
aI3
aI1
aI7
aI4
aI5
aI6
aI3
aI6
aI4
aI3
aI3
aI7
aI4
aI4
aI6
aI4
aI6
aI1
aI2
aI4
aI7
aI5
aI4
aI6
aI1
aI3
aI7
aI7
aI7
aI1
aI3
aI7
aI6
aI5
aI1
aI4
aI5
aI6
aI7
aI3
aI5
aI1
aI7
aI7
aI7
aI4
aI7
aI3
aI2
aI7
aI1
aI7
aI3
aI6
aI1
aI1
aI2
aI1
aI1
aI7
aI6
aI3
aI7
aI6
aI1
aI2
aI2
aI1
aI4
aI7
aI1
aI7
aI7
aI2
aI1
aI4
aI4
aI2
aI3
aI7
aI2
aI6
aI6
aI5
aI2
aI4
aI4
aI5
aI7
aI4
aI1
aI4
aI7
aI5
aI6
aI7
aI5
aI2
aI4
aI1
aI7
aI6
aI3
aI3
aI5
aI5
aI2
aI5
aI4
aI4
aI1
aI2
aI4
aI6
aI5
aI2
aI7
aI2
aI4
aI5
aI4
aI6
aI5
aI1
aI2
aI7
aI6
aI5
aI5
aI6
aI1
aI6
aI6
aI6
aI2
aI3
aI5
aI2
aI6
aI3
aI4
aI2
aI7
aI7
aI4
aI5
aI4
aI7
aI6
aI7
aI7
aI1
aI2
aI3
aI7
aI3
aI4
aI6
aI4
aI1
aI7
aI5
aI2
aI3
aI3
aI6
aI5
aI4
aI3
aI7
aI2
aI6
aI4
aI5
aI1
aI7
aI7
aI5
aI6
aI1
aI3
aI4
aI4
aI3
aI2
aI3
aI4
aI4
aI2
aI5
aI7
aI3
aI7
aI6
aI7
aI2
aI2
aI1
aI2
aI1
aI4
aI3
aI1
aI3
aI4
aI5
aI1
aI2
aI3
aI5
aI3
aI2
aI2
aI4
aI3
aI5
aI2
aI6
aI4
aI6
aI4
aI2
aI2
aI7
aI1
aI3
aI1
aI3
aI1
aI5
aI1
aI2
aI7
aI4
aI3
aI5
aI5
aI2
aI6
aI6
aI6
aI7
aI6
aI6
aI5
aI2
aI2
aI1
aI6
aI7
aI4
aI6
aI2
aI3
aI5
aI5
aI3
aI1
aI5
aI5
aI7
aI7
aI1
aI4
aI6
aI1
aI4
aI7
aI6
aI2
aI1
aI7
aI1
aI5
aI2
aI5
aI2
aI6
aI2
aI2
aI3
aI3
aI4
aI7
aI6
aI3
aI7
aI7
aI4
aI2
aI5
aI4
aI7
aI3
aI4
aI2
aI5
aI6
aI5
aI4
aI4
aI5
aI6
aI5
aI1
aI5
aI5
aI3
aI6
aI2
aI6
aI5
aI7
aI6
aI5
aI1
aI6
aI7
aI6
aI1
aI2
aI7
aI5
aI5
aI2
aI1
aI3
aI6
aI3
aI7
aI7
aI7
aI5
aI2
aI6
aI7
aI2
aI4
aI1
aI1
aI2
aI7
aI6
aI2
aI4
aI2
aI6
aI1
aI3
aI1
aI7
aI4
aI6
aI2
aI5
aI5
aI7
aI2
aI1
aI2
aI3
aI6
aI3
aI1
aI7
aI4
aI3
aI1
aI2
aI6
aI7
aI4
aI6
aI4
aI7
aI7
aI4
aI2
aI6
aI2
aI7
aI2
aI1
aI6
aI6
aI7
aI1
aI3
aI5
aI6
aI2
aI1
aI5
aI5
aI4
aI6
aI7
aI7
aI3
aI3
aI3
aI1
aI1
aI6
aI5
aI1
aI1
aI7
aI4
aI7
aI5
aI3
aI3
aI2
aI6
aI4
aI5
aI7
aI3
aI7
aI2
aI3
aI4
aI7
aI7
aI1
aI3
aI2
aI5
aI7
aI4
aI7
aI7
aI2
aI3
aI3
aI6
aI2
aI3
aI6
aI2
aI6
aI4
aI6
aI3
aI2
aI1
aI7
aI7
aI6
aI3
aI4
aI7
aI1
aI7
aI5
aI7
aI1
aI1
aI7
aI4
aI7
aI1
aI2
aI2
aI5
aI4
aI5
aI1
aI1
aI7
aI5
aI2
aI1
aI1
aI3
aI6
aI6
aI1
aI7
aI7
aI2
aI1
aI6
aI4
aI7
aI4
aI7
aI4
aI1
aI2
aI6
aI7
aI6
aI7
aI1
aI2
aI4
aI5
aI7
aI6
aI2
aI5
aI6
aI7
aI4
aI6
aI1
aI2
aI6
aI1
aI2
aI4
aI2
aI1
aI5
aI1
aI2
aI3
aI2
aI7
aI5
aI3
aI4
aI1
aI3
aI6
aI2
aI4
aI3
aI7
aI7
aI2
aI3
aI5
aI5
aI5
aI6
aI3
aI4
aI6
aI1
aI3
aI3
aI2
aI7
aI3
aI4
aI6
aI4
aI1
aI2
aI1
aI1
aI2
aI5
aI1
aI5
aI1
aI6
aI1
aI6
aI1
aI6
aI7
aI2
aI5
aI3
aI7
aI1
aI7
aI3
aI6
aI6
aI1
aI4
aI2
aI5
aI4
aI2
aI1
aI2
aI3
aI2
aI4
aI7
aI4
aI6
aI3
aI5
aI2
aI3
aI1
aI6
aI3
aI6
aI4
aI4
aI6
aI4
aI4
aI3
aI4
aI7
aI2
aI2
aI7
aI4
aI7
aI5
aI7
aI3
aI2
aI2
aI7
aI2
aI2
aI5
aI6
aI7
aI3
aI2
aI2
aI2
aI1
aI2
aI5
aI1
aI5
aI4
aI2
aI2
aI7
aI3
aI7
aI7
aI6
aI1
aI4
aI7
aI5
aI4
aI7
aI7
aI7
aI2
aI1
aI3
aI6
aI2
aI3
aI4
aI4
aI6
aI4
aI3
aI5
aI4
aI5
aI7
aI6
aI6
aI6
aI5
aI5
aI6
aI2
aI5
aI1
aI3
aI6
aI7
aI7
aI5
aI6
aI1
aI5
aI6
aI2
aI7
aI6
aI6
aI5
aI4
aI4
aI2
aI7
aI4
aI3
aI6
aI5
aI2
aI6
aI1
aI4
aI6
aI7
aI1
aI2
aI6
aI6
aI4
aI1
aI1
aI2
aI4
aI6
aI2
aI2
aI4
aI1
aI2
aI3
aI1
aI6
aI5
aI4
aI3
aI7
aI3
aI2
aI5
aI3
aI1
aI5
aI1
aI6
aI6
aI6
aI3
aI6
aI1
aI3
aI7
aI3
aI1
aI1
aI5
aI2
aI7
aI3
aI7
aI4
aI5
aI2
aI2
aI7
aI2
aI1
aI3
aI2
aI3
aI7
aI7
aI7
aI7
aI2
aI4
aI1
aI5
aI5
aI2
aI7
aI3
aI1
aI7
aI6
aI4
aI7
aI1
aI3
aI7
aI6
aI4
aI1
aI7
aI4
aI5
aI6
aI5
aI2
aI5
aI6
aI7
aI3
aI5
aI7
aI2
aI3
aI7
aI1
aI5
aI4
aI6
aI7
aI7
aI7
aI2
aI6
aI5
aI4
aI6
aI1
aI2
aI7
aI7
aI7
aI3
aI2
aI4
aI6
aI1
aI2
aI3
aI7
aI3
aI7
aI7
aI4
aI6
aI1
aI7
aI4
aI3
aI2
aI2
aI3
aI4
aI2
aI5
aI2
aI5
aI4
aI5
aI5
aI2
aI3
aI6
aI7
aI2
aI7
aI4
aI5
aI6
aI2
aI1
aI3
aI4
aI1
aI3
aI2
aI3
aI5
aI1
aI3
aI3
aI3
aI5
aI6
aI4
aI7
aI6
aI3
aI6
aI4
aI1
aI5
aI2
aI7
aI5
aI7
aI3
aI6
aI5
aI6
aI1
aI4
aI7
aI1
aI3
aI4
aI7
aI7
aI6
aI7
aI6
aI2
aI6
aI2
aI6
aI4
aI7
aI2
aI6
aI2
aI2
aI5
aI4
aI7
aI1
aI6
aI4
aI6
aI7
aI7
aI5
aI6
aI7
aI4
aI5
aI7
aI1
aI3
aI5
aI4
aI1
aI2
aI5
aI3
aI6
aI6
aI7
aI4
aI5
aI5
aI4
aI1
aI4
aI5
aI4
aI6
aI3
aI5
aI2
aI1
aI5
aI6
aI3
aI6
aI5
aI1
aI6
aI7
aI6
aI1
aI2
aI6
aI7
aI4
aI1
aI7
aI4
aI2
aI7
aI6
aI6
aI4
aI7
aI2
aI2
aI3
aI1
aI3
aI6
aI3
aI7
aI2
aI6
aI2
aI7
aI6
aI5
aI6
aI3
aI6
aI4
aI2
aI3
aI4
aI7
aI1
aI3
aI2
aI5
aI5
aI7
aI4
aI6
aI3
aI7
aI5
aI6
aI1
aI3
aI7
aI5
aI6
aI3
aI6
aI4
aI6
aI1
aI4
aI4
aI5
aI7
aI6
aI6
aI7
aI6
aI3
aI2
aI2
aI4
aI6
aI7
aI2
aI6
aI5
aI1
aI4
aI7
aI7
aI5
aI7
aI3
aI5
aI4
aI4
aI2
aI3
aI5
aI1
aI6
aI1
aI7
aI3
aI6
aI7
aI7
aI2
aI6
aI1
aI5
aI7
aI7
aI5
aI5
aI2
aI6
aI1
aI3
aI1
aI3
aI4
aI6
aI5
aI6
aI7
aI1
aI2
aI6
aI2
aI2
aI7
aI3
aI2
aI2
aI6
aI3
aI7
aI3
aI1
aI1
aI5
aI4
aI5
aI7
aI6
aI2
aI5
aI1
aI6
aI1
aI1
aI5
aI7
aI5
aI3
aI6
aI3
aI4
aI2
aI7
aI6
aI7
aI4
aI4
aI2
aI1
aI1
aI6
aI6
aI1
aI1
aI5
aI4
aI4
aI4
aI6
aI7
aI4
aI6
aI7
aI4
aI5
aI2
aI3
aI3
aI1
aI4
aI5
aI7
aI4
aI6
aI3
aI7
aI2
aI1
aI1
aI3
aI7
aI5
aI6
aI4
aI6
aI5
aI6
aI2
aI3
aI1
aI1
aI6
aI5
aI1
aI1
aI4
aI1
aI2
aI7
aI3
aI4
aI6
aI4
aI7
aI1
aI6
aI6
aI3
aI6
aI5
aI1
aI2
aI6
aI1
aI4
aI6
aI4
aI2
aI2
aI4
aI2
aI5
aI6
aI2
aI4
aI4
aI5
aI5
aI3
aI2
aI1
aI5
aI3
aI6
aI6
aI1
aI6
aI1
aI1
aI1
aI1
aI2
aI6
aI6
aI2
aI6
aI4
aI6
aI7
aI7
aI6
aI6
aI1
aI3
aI6
aI4
aI4
aI3
aI4
aI7
aI4
aI2
aI6
aI1
aI5
aI2
aI4
aI6
aI6
aI7
aI2
aI1
aI3
aI2
aI6
aI5
aI7
aI1
aI3
aI1
aI5
aI6
aI6
aI6
aI5
aI5
aI5
aI4
aI2
aI3
aI7
aI1
aI4
aI3
aI2
aI7
aI4
aI4
aI4
aI4
aI6
aI3
aI1
aI2
aI7
aI3
aI7
aI1
aI7
aI5
aI5
aI1
aI1
aI1
aI6
aI4
aI7
aI3
aI2
aI7
aI3
aI3
aI6
aI5
aI1
aI2
aI6
aI3
aI3
aI5
aI4
aI3
aI1
aI1
aI6
aI6
aI1
aI5
aI6
aI7
aI3
aI1
aI5
aI4
aI3
aI5
aI7
aI2
aI5
aI3
aI2
aI2
aI4
aI6
aI7
aI4
aI5
aI6
aI4
aI1
aI6
aI7
aI5
aI5
aI3
aI4
aI5
aI3
aI5
aI6
aI4
aI3
aI3
aI4
aI3
aI2
aI4
aI4
aI6
aI1
aI2
aI1
aI4
aI1
aI5
aI6
aI2
aI4
aI4
aI7
aI3
aI5
aI5
aI7
aI6
aI3
aI1
aI2
aI1
aI6
aI5
aI3
aI6
aI5
aI4
aI5
aI5
aI3
aI1
aI4
aI7
aI4
aI5
aI5
aI4
aI4
aI7
aI6
aI7
aI7
aI6
aI7
aI4
aI2
aI5
aI7
aI3
aI6
aI2
aI3
aI4
aI3
aI1
aI4
aI1
aI4
aI3
aI6
aI6
aI7
aI3
aI7
aI5
aI6
aI2
aI6
aI7
aI4
aI1
aI7
aI1
aI2
aI5
aI7
aI5
aI6
aI5
aI6
aI5
aI3
aI3
aI5
aI1
aI4
aI7
aI6
aI4
aI5
aI6
aI2
aI2
aI2
aI1
aI7
aI4
aI6
aI1
aI4
aI7
aI6
aI3
aI1
aI3
aI1
aI6
aI1
aI6
aI2
aI3
aI3
aI6
aI6
aI1
aI3
aI1
aI7
aI5
aI7
aI4
aI6
aI1
aI1
aI4
aI5
aI6
aI3
aI1
aI4
aI2
aI4
aI1
aI5
aI2
aI7
aI4
aI1
aI7
aI5
aI4
aI1
aI5
aI2
aI6
aI5
aI4
aI2
aI5
aI4
aI6
aI2
aI4
aI2
aI3
aI3
aI7
aI5
aI7
aI5
aI7
aI5
aI4
aI6
aI5
aI5
aI7
aI1
aI2
aI6
aI7
aI5
aI4
aI5
aI2
aI1
aI4
aI2
aI2
aI5
aI6
aI5
aI3
aI3
aI2
aI5
aI7
aI1
aI2
aI7
aI4
aI3
aI3
aI5
aI4
aI1
aI1
aI6
aI2
aI6
aI6
aI7
aI2
aI4
aI6
aI3
aI5
aI3
aI3
aI6
aI2
aI1
aI7
aI2
aI2
aI4
aI4
aI7
aI7
aI3
aI4
aI1
aI2
aI2
aI4
aI1
aI3
aI5
aI1
aI2
aI5
aI7
aI1
aI2
aI3
aI3
aI1
aI2
aI1
aI1
aI5
aI7
aI3
aI4
aI5
aI5
aI1
aI5
aI4
aI4
aI6
aI4
aI5
aI4
aI7
aI4
aI4
aI7
aI5
aI3
aI3
aI6
aI4
aI1
aI2
aI1
aI6
aI3
aI6
aI5
aI3
aI3
aI2
aI6
aI6
aI1
aI4
aI2
aI3
aI3
aI7
aI3
aI5
aI4
aI3
aI7
aI1
aI5
aI4
aI6
aI4
aI5
aI6
aI2
aI1
aI3
aI3
aI2
aI1
aI6
aI4
aI1
aI3
aI3
aI1
aI6
aI7
aI7
aI5
aI1
aI7
aI5
aI7
aI6
aI1
aI2
aI7
aI3
aI6
aI2
aI3
aI6
aI2
aI4
aI5
aI6
aI1
aI2
aI7
aI2
aI6
aI1
aI5
aI6
aI4
aI1
aI1
aI5
aI5
aI7
aI6
aI7
aI7
aI4
aI2
aI4
aI2
aI1
aI3
aI6
aI3
aI3
aI4
aI3
aI7
aI2
aI2
aI7
aI7
aI3
aI6
aI7
aI2
aI5
aI3
aI4
aI1
aI7
aI4
aI3
aI6
aI2
aI4
aI7
aI3
aI7
aI3
aI1
aI3
aI2
aI5
aI4
aI4
aI7
aI4
aI5
aI3
aI2
aI7
aI2
aI2
aI7
aI1
aI1
aI2
aI2
aI3
aI2
aI7
aI1
aI4
aI4
aI3
aI5
aI5
aI7
aI2
aI5
aI5
aI2
aI6
aI1
aI2
aI4
aI2
aI5
aI3
aI1
aI1
aI5
aI2
aI1
aI6
aI3
aI1
aI4
aI1
aI2
aI1
aI4
aI1
aI5
aI6
aI5
aI3
aI6
aI4
aI1
aI5
aI4
aI3
aI4
aI5
aI7
aI2
aI5
aI5
aI5
aI6
aI2
aI3
aI2
aI1
aI3
aI1
aI5
aI1
aI7
aI3
aI4
aI2
aI7
aI4
aI6
aI1
aI5
aI1
aI5
aI4
aI7
aI7
aI7
aI4
aI3
aI7
aI5
aI1
aI2
aI3
aI3
aI7
aI2
aI3
aI5
aI2
aI3
aI1
aI1
aI4
aI6
aI3
aI2
aI5
aI3
aI3
aI4
aI7
aI4
aI6
aI6
aI5
aI4
aI7
aI2
aI4
aI4
aI6
aI2
aI6
aI4
aI7
aI2
aI4
aI4
aI3
aI5
aI5
aI2
aI1
aI6
aI4
aI1
aI1
aI6
aI6
aI4
aI7
aI1
aI2
aI7
aI4
aI3
aI3
aI1
aI3
aI6
aI5
aI4
aI1
aI2
aI4
aI6
aI4
aI7
aI7
aI1
aI3
aI7
aI7
aI4
aI7
aI1
aI4
aI1
aI2
aI3
aI4
aI3
aI2
aI2
aI7
aI3
aI7
aI4
aI2
aI1
aI3
aI5
aI5
aI5
aI4
aI2
aI4
aI6
aI7
aI3
aI7
aI5
aI6
aI5
aI6
aI3
aI7
aI5
aI5
aI1
aI1
aI3
aI1
aI3
aI5
aI2
aI1
aI6
aI7
aI4
aI6
aI7
aI1
aI5
aI4
aI3
aI5
aI2
aI5
aI7
aI7
aI5
aI4
aI5
aI2
aI2
aI4
aI6
aI3
aI5
aI5
aI7
aI1
aI3
aI7
aI2
aI6
aI6
aI7
aI6
aI4
aI4
aI4
aI3
aI1
aI3
aI1
aI1
aI6
aI1
aI6
aI3
aI1
aI3
aI1
aI2
aI6
aI2
aI5
aI4
aI2
aI1
aI6
aI2
aI6
aI7
aI7
aI7
aI2
aI4
aI5
aI4
aI7
aI5
aI2
aI2
aI6
aI7
aI6
aI4
aI4
aI7
aI3
aI4
aI4
aI6
aI4
aI1
aI3
aI7
aI4
aI1
aI7
aI4
aI3
aI1
aI6
aI5
aI7
aI1
aI1
aI4
aI7
aI2
aI7
aI7
aI3
aI4
aI7
aI1
aI5
aI5
aI4
aI2
aI4
aI1
aI5
aI1
aI6
aI7
aI1
aI7
aI3
aI3
aI1
aI1
aI5
aI1
aI2
aI6
aI2
aI3
aI5
aI1
aI2
aI5
aI5
aI3
aI6
aI3
aI2
aI7
aI2
aI7
aI4
aI3
aI6
aI5
aI4
aI1
aI6
aI5
aI3
aI1
aI4
aI6
aI1
aI2
aI7
aI1
aI3
aI4
aI5
aI1
aI1
aI5
aI5
aI7
aI7
aI6
aI4
aI2
aI6
aI3
aI6
aI2
aI7
aI4
aI6
aI7
aI3
aI4
aI5
aI3
aI5
aI7
aI2
aI3
aI6
aI1
aI1
aI2
aI2
aI7
aI3
aI5
aI7
aI2
aI4
aI5
aI3
aI3
aI2
aI4
aI4
aI6
aI7
aI5
aI5
aI6
aI2
aI5
aI6
aI3
aI6
aI5
aI6
aI6
aI2
aI7
aI1
aI4
aI6
aI6
aI3
aI7
aI7
aI2
aI4
aI3
aI6
aI6
aI3
aI3
aI7
aI6
aI1
aI4
aI1
aI5
aI2
aI1
aI7
aI3
aI2
aI3
aI5
aI1
aI5
aI1
aI6
aI1
aI4
aI5
aI4
aI7
aI5
aI2
aI6
aI4
aI6
aI1
aI1
aI6
aI2
aI5
aI2
aI7
aI7
aI1
aI1
aI1
aI4
aI1
aI3
aI1
aI7
aI4
aI5
aI6
aI6
aI6
aI1
aI2
aI4
aI2
aI3
aI7
aI1
aI2
aI1
aI4
aI3
aI5
aI2
aI3
aI5
aI5
aI5
aI7
aI6
aI2
aI1
aI3
aI3
aI3
aI3
aI5
aI5
aI5
aI5
aI3
aI4
aI2
aI5
aI5
aI3
aI1
aI3
aI4
aI7
aI4
aI6
aI2
aI5
aI1
aI2
aI1
aI4
aI7
aI4
aI3
aI6
aI1
aI2
aI5
aI6
aI2
aI1
aI1
aI5
aI2
aI1
aI7
aI4
aI4
aI2
aI5
aI5
aI4
aI5
aI4
aI6
aI3
aI1
aI6
aI2
aI6
aI4
aI6
aI7
aI4
aI3
aI5
aI6
aI5
aI3
aI4
aI4
aI6
aI3
aI6
aI6
aI6
aI6
aI4
aI6
aI7
aI1
aI2
aI1
aI5
aI2
aI1
aI2
aI1
aI5
aI7
aI2
aI2
aI5
aI4
aI3
aI6
aI4
aI1
aI1
aI5
aI2
aI1
aI3
aI6
aI1
aI5
aI3
aI4
aI3
aI4
aI7
aI4
aI6
aI3
aI2
aI7
aI7
aI6
aI1
aI4
aI3
aI3
aI5
aI3
aI4
aI5
aI2
aI4
aI2
aI3
aI1
aI6
aI6
aI2
aI1
aI4
aI6
aI7
aI6
aI3
aI5
aI1
aI1
aI5
aI5
aI2
aI2
aI3
aI5
aI2
aI4
aI5
aI3
aI7
aI4
aI3
aI3
aI3
aI5
aI6
aI1
aI6
aI7
aI1
aI6
aI2
aI7
aI1
aI1
aI2
aI7
aI2
aI1
aI2
aI4
aI6
aI1
aI3
aI5
aI6
aI6
aI1
aI3
aI2
aI3
aI3
aI1
aI6
aI5
aI5
aI1
aI4
aI6
aI1
aI1
aI3
aI4
aI5
aI2
aI5
aI2
aI6
aI3
aI5
aI2
aI6
aI2
aI7
aI4
aI3
aI5
aI6
aI2
aI3
aI7
aI1
aI1
aI5
aI1
aI4
aI7
aI4
aI1
aI4
aI5
aI7
aI7
aI7
aI3
aI3
aI2
aI5
aI6
aI7
aI1
aI2
aI1
aI3
aI5
aI2
aI1
aI1
aI1
aI6
aI1
aI7
aI7
aI3
aI3
aI5
aI3
aI2
aI3
aI7
aI6
aI5
aI6
aI3
aI4
aI7
aI6
aI2
aI5
aI1
aI6
aI7
aI1
aI5
aI2
aI2
aI3
aI4
aI5
aI5
aI4
aI3
aI6
aI2
aI3
aI5
aI4
aI5
aI4
aI7
aI2
aI3
aI1
aI1
aI6
aI1
aI1
aI6
aI7
aI4
aI7
aI2
aI4
aI4
aI1
aI3
aI3
aI4
aI1
aI4
aI7
aI4
aI5
aI6
aI3
aI7
aI2
aI5
aI7
aI7
aI5
aI6
aI2
aI2
aI1
aI7
aI6
aI3
aI3
aI2
aI1
aI2
aI5
aI3
aI4
aI7
aI3
aI7
aI3
aI5
aI3
aI3
aI3
aI3
aI6
aI2
aI2
aI7
aI7
aI2
aI2
aI1
aI1
aI3
aI2
aI3
aI5
aI5
aI6
aI3
aI4
aI4
aI7
aI3
aI5
aI5
aI2
aI3
aI3
aI7
aI4
aI1
aI5
aI5
aI3
aI4
aI1
aI3
aI7
aI1
aI6
aI1
aI2
aI3
aI5
aI5
aI5
aI6
aI1
aI6
aI6
aI1
aI2
aI4
aI3
aI4
aI4
aI7
aI5
aI1
aI3
aI4
aI6
aI3
aI6
aI5
aI5
aI6
aI6
aI4
aI4
aI2
aI4
aI3
aI1
aI7
aI1
aI5
aI3
aI2
aI2
aI3
aI5
aI7
aI5
aI6
aI7
aI6
aI2
aI5
aI3
aI3
aI4
aI3
aI1
aI7
aI3
aI3
aI4
aI7
aI1
aI3
aI4
aI1
aI5
aI1
aI6
aI7
aI3
aI4
aI3
aI7
aI6
aI6
aI4
aI2
aI2
aI2
aI3
aI3
aI7
aI7
aI3
aI5
aI2
aI1
aI7
aI6
aI5
aI6
aI4
aI7
aI5
aI7
aI6
aI7
aI2
aI1
aI5
aI1
aI2
aI7
aI5
aI3
aI1
aI5
aI7
aI5
aI7
aI3
aI1
aI7
aI1
aI3
aI2
aI4
aI6
aI2
aI1
aI4
aI6
aI3
aI5
aI1
aI2
aI1
aI7
aI7
aI2
aI1
aI2
aI4
aI5
aI6
aI6
aI5
aI6
aI3
aI2
aI1
aI4
aI2
aI4
aI6
aI6
aI4
aI7
aI4
aI1
aI5
aI6
aI5
aI2
aI5
aI5
aI2
aI2
aI4
aI7
aI2
aI2
aI6
aI6
aI6
aI4
aI4
aI7
aI4
aI5
aI5
aI3
aI5
aI3
aI3
aI7
aI3
aI1
aI1
aI2
aI5
aI4
aI3
aI3
aI2
aI3
aI7
aI6
aI6
aI4
aI5
aI5
aI2
aI5
aI1
aI6
aI7
aI1
aI5
aI5
aI2
aI1
aI7
aI1
aI3
aI1
aI7
aI4
aI3
aI2
aI4
aI5
aI7
aI3
aI1
aI1
aI3
aI5
aI5
aI6
aI7
aI3
aI7
aI3
aI4
aI2
aI5
aI3
aI7
aI3
aI4
aI6
aI4
aI3
aI5
aI2
aI5
aI7
aI1
aI4
aI5
aI3
aI2
aI4
aI1
aI7
aI4
aI1
aI2
aI5
aI4
aI5
aI1
aI6
aI2
aI7
aI3
aI7
aI3
aI3
aI3
aI2
aI1
aI2
aI2
aI2
aI3
aI7
aI7
aI3
aI3
aI4
aI5
aI1
aI2
aI7
aI1
aI7
aI3
aI5
aI6
aI3
aI5
aI3
aI1
aI6
aI4
aI1
aI4
aI3
aI7
aI6
aI5
aI6
aI2
aI3
aI5
aI2
aI5
aI4
aI7
aI4
aI5
aI1
aI4
aI7
aI4
aI6
aI4
aI4
aI6
aI3
aI1
aI5
aI2
aI1
aI1
aI2
aI6
aI7
aI1
aI2
aI6
aI4
aI7
aI5
aI7
aI5
aI6
aI7
aI3
aI6
aI2
aI4
aI5
aI5
aI3
aI4
aI7
aI3
aI5
aI3
aI3
aI4
aI5
aI2
aI4
aI1
aI3
aI2
aI6
aI1
aI1
aI4
aI4
aI3
aI6
aI7
aI1
aI4
aI7
aI4
aI3
aI5
aI1
aI4
aI1
aI3
aI7
aI2
aI1
aI7
aI5
aI6
aI1
aI4
aI1
aI6
aI6
aI7
aI5
aI4
aI7
aI7
aI3
aI4
aI5
aI3
aI1
aI3
aI2
aI7
aI6
aI3
aI6
aI1
aI3
aI2
aI7
aI2
aI1
aI5
aI3
aI7
aI7
aI2
aI5
aI3
aI5
aI6
aI5
aI1
aI6
aI4
aI7
aI6
aI3
aI6
aI6
aI2
aI2
aI4
aI5
aI5
aI2
aI5
aI2
aI5
aI2
aI7
aI4
aI6
aI5
aI5
aI6
aI5
aI6
aI2
aI3
aI7
aI4
aI3
aI2
aI4
aI6
aI2
aI5
aI4
aI6
aI3
aI7
aI3
aI2
aI2
aI3
aI1
aI2
aI4
aI4
aI4
aI4
aI5
aI5
aI2
aI2
aI3
aI7
aI1
aI4
aI6
aI7
aI3
aI5
aI5
aI7
aI1
aI2
aI1
aI2
aI7
aI4
aI5
aI3
aI5
aI6
aI7
aI5
aI2
aI5
aI1
aI5
aI2
aI2
aI2
aI7
aI4
aI6
aI1
aI4
aI4
aI6
aI2
aI1
aI7
aI3
aI3
aI3
aI5
aI4
aI1
aI6
aI5
aI5
aI2
aI1
aI1
aI1
aI7
aI4
aI7
aI3
aI1
aI5
aI4
aI5
aI4
aI2
aI5
aI7
aI3
aI5
aI2
aI1
aI6
aI2
aI3
aI6
aI4
aI5
aI7
aI7
aI6
aI2
aI4
aI6
aI7
aI1
aI5
aI7
aI6
aI3
aI7
aI6
aI4
aI3
aI6
aI3
aI6
aI1
aI1
aI3
aI2
aI1
aI7
aI7
aI4
aI5
aI7
aI1
aI7
aI5
aI3
aI3
aI5
aI4
aI1
aI3
aI3
aI5
aI6
aI1
aI5
aI4
aI2
aI4
aI4
aI4
aI1
aI4
aI6
aI6
aI4
aI5
aI2
aI5
aI1
aI5
aI4
aI7
aI3
aI3
aI6
aI2
aI4
aI5
aI3
aI5
aI1
aI2
aI6
aI5
aI4
aI6
aI2
aI1
aI2
aI7
aI4
aI6
aI5
aI2
aI1
aI2
aI2
aI7
aI3
aI6
aI4
aI5
aI3
aI4
aI7
aI3
aI6
aI5
aI5
aI5
aI1
aI2
aI1
aI6
aI1
aI3
aI7
aI2
aI7
aI6
aI1
aI3
aI6
aI5
aI3
aI1
aI2
aI3
aI2
aI4
aI1
aI2
aI3
aI7
aI1
aI4
aI4
aI1
aI4
aI3
aI1
aI1
aI2
aI2
aI3
aI2
aI4
aI5
aI6
aI1
aI5
aI3
aI7
aI5
aI5
aI2
aI2
aI3
aI5
aI7
aI2
aI2
aI5
aI7
aI6
aI4
aI5
aI5
aI3
aI1
aI3
aI3
aI7
aI4
aI1
aI5
aI2
aI6
aI7
aI5
aI4
aI5
aI7
aI7
aI2
aI7
aI3
aI1
aI6
aI5
aI1
aI5
aI6
aI5
aI7
aI4
aI6
aI3
aI7
aI6
aI4
aI1
aI7
aI3
aI7
aI1
aI2
aI1
aI7
aI4
aI1
aI3
aI1
aI7
aI7
aI5
aI6
aI5
aI3
aI1
aI7
aI7
aI6
aI1
aI6
aI3
aI4
aI2
aI4
aI1
aI1
aI1
aI6
aI3
aI1
aI1
aI1
aI1
aI3
aI3
aI4
aI4
aI6
aI6
aI2
aI4
aI4
aI7
aI4
aI5
aI7
aI6
aI3
aI4
aI6
aI1
aI2
aI3
aI5
aI6
aI1
aI2
aI1
aI2
aI3
aI1
aI2
aI4
aI5
aI5
aI3
aI3
aI1
aI7
aI3
aI1
aI3
aI6
aI2
aI6
aI6
aI4
aI5
aI2
aI3
aI7
aI6
aI5
aI1
aI3
aI1
aI1
aI3
aI7
aI2
aI2
aI4
aI7
aI3
aI1
aI1
aI1
aI6
aI7
aI4
aI6
aI7
aI7
aI5
aI1
aI7
aI7
aI6
aI3
aI6
aI7
aI4
aI6
aI3
aI5
aI1
aI3
aI4
aI2
aI6
aI1
aI6
aI7
aI3
aI7
aI3
aI1
aI5
aI6
aI6
aI1
aI4
aI4
aI7
aI3
aI3
aI5
aI3
aI1
aI5
aI5
aI1
aI1
aI3
aI3
aI3
aI2
aI1
aI6
aI7
aI7
aI6
aI2
aI1
aI6
aI4
aI2
aI7
aI6
aI6
aI7
aI4
aI3
aI5
aI7
aI3
aI2
aI2
aI4
aI1
aI4
aI1
aI2
aI6
aI7
aI5
aI6
aI2
aI7
aI1
aI6
aI6
aI7
aI2
aI5
aI7
aI3
aI1
aI1
aI2
aI6
aI7
aI6
aI6
aI6
aI3
aI6
aI7
aI6
aI6
aI2
aI7
aI2
aI5
aI6
aI5
aI2
aI2
aI1
aI6
aI1
aI2
aI2
aI5
aI3
aI6
aI5
aI7
aI3
aI7
aI5
aI4
aI7
aI7
aI1
aI7
aI1
aI6
aI4
aI2
aI3
aI4
aI7
aI2
aI6
aI7
aI6
aI4
aI2
aI6
aI2
aI1
aI7
aI5
aI6
aI3
aI4
aI4
aI5
aI7
aI6
aI5
aI6
aI4
aI4
aI6
aI1
aI4
aI5
aI2
aI6
aI1
aI5
aI3
aI3
aI2
aI2
aI7
aI2
aI7
aI7
aI1
aI5
aI4
aI3
aI4
aI1
aI6
aI7
aI3
aI5
aI7
aI5
aI1
aI1
aI4
aI2
aI4
aI1
aI3
aI6
aI1
aI6
aI4
aI7
aI6
aI7
aI6
aI7
aI5
aI7
aI5
aI6
aI3
aI5
aI3
aI7
aI2
aI1
aI1
aI6
aI4
aI5
aI2
aI4
aI7
aI7
aI7
aI1
aI7
aI1
aI3
aI1
aI7
aI2
aI3
aI3
aI1
aI2
aI1
aI2
aI2
aI1
aI1
aI7
aI6
aI3
aI1
aI7
aI2
aI3
aI6
aI7
aI7
aI3
aI6
aI2
aI5
aI4
aI3
aI1
aI3
aI7
aI4
aI7
aI2
aI6
aI5
aI7
aI3
aI7
aI4
aI1
aI4
aI3
aI4
aI3
aI1
aI2
aI6
aI7
aI4
aI1
aI7
aI5
aI4
aI6
aI1
aI6
aI4
aI7
aI7
aI3
aI3
aI3
aI2
aI7
aI1
aI4
aI3
aI4
aI3
aI6
aI5
aI4
aI2
aI5
aI5
aI1
aI2
aI5
aI1
aI1
aI3
aI3
aI4
aI6
aI5
aI6
aI1
aI7
aI4
aI4
aI5
aI4
aI5
aI3
aI7
aI3
aI4
aI4
aI4
aI6
aI3
aI2
aI4
aI7
aI1
aI3
aI3
aI7
aI3
aI7
aI7
aI7
aI4
aI2
aI2
aI6
aI4
aI2
aI3
aI3
aI1
aI4
aI3
aI3
aI3
aI2
aI2
aI1
aI7
aI4
aI1
aI2
aI7
aI1
aI3
aI1
aI2
aI5
aI6
aI5
aI4
aI5
aI7
aI3
aI1
aI1
aI1
aI1
aI5
aI2
aI3
aI7
aI4
aI4
aI4
aI3
aI1
aI4
aI2
aI6
aI6
aI3
aI2
aI2
aI6
aI7
aI4
aI3
aI6
aI5
aI6
aI6
aI4
aI5
aI2
aI2
aI4
aI3
aI5
aI4
aI1
aI3
aI1
aI3
aI2
aI5
aI5
aI5
aI3
aI1
aI4
aI4
aI5
aI4
aI1
aI2
aI1
aI3
aI6
aI2
aI1
aI6
aI6
aI3
aI2
aI7
aI3
aI7
aI7
aI4
aI1
aI6
aI6
aI1
aI1
aI5
aI2
aI7
aI1
aI1
aI2
aI4
aI1
aI1
aI3
aI3
aI1
aI1
aI1
aI4
aI2
aI3
aI3
aI1
aI5
aI4
aI4
aI4
aI7
aI4
aI5
aI5
aI1
aI3
aI6
aI2
aI1
aI2
aI5
aI3
aI5
aI3
aI5
aI2
aI4
aI2
aI6
aI7
aI1
aI4
aI2
aI2
aI1
aI7
aI3
aI2
aI7
aI7
aI5
aI4
aI5
aI6
aI7
aI3
aI6
aI3
aI7
aI5
aI4
aI3
aI7
aI5
aI6
aI7
aI3
aI3
aI6
aI6
aI1
aI4
aI7
aI2
aI7
aI3
aI5
aI7
aI5
aI7
aI4
aI1
aI1
aI2
aI2
aI2
aI1
aI6
aI2
aI6
aI3
aI6
aI7
aI1
aI5
aI5
aI7
aI6
aI7
aI2
aI3
aI2
aI2
aI6
aI5
aI1
aI4
aI1
aI2
aI4
aI7
aI5
aI6
aI7
aI3
aI3
aI6
aI7
aI2
aI7
aI2
aI1
aI7
aI5
aI3
aI1
aI5
aI7
aI7
aI3
aI2
aI7
aI2
aI4
aI4
aI6
aI6
aI3
aI4
aI3
aI4
aI2
aI5
aI5
aI1
aI4
aI1
aI6
aI3
aI5
aI2
aI3
aI1
aI1
aI4
aI1
aI7
aI1
aI1
aI7
aI3
aI2
aI6
aI1
aI1
aI4
aI4
aI4
aI3
aI2
aI7
aI5
aI4
aI1
aI4
aI4
aI4
aI3
aI6
aI6
aI2
aI6
aI6
aI7
aI1
aI2
aI3
aI1
aI6
aI7
aI2
aI3
aI2
aI2
aI7
aI7
aI3
aI4
aI2
aI3
aI6
aI2
aI3
aI5
aI3
aI6
aI2
aI6
aI7
aI4
aI4
aI3
aI3
aI1
aI5
aI4
aI6
aI4
aI3
aI5
aI4
aI4
aI4
aI7
aI3
aI3
aI2
aI1
aI1
aI3
aI6
aI2
aI7
aI3
aI1
aI7
aI6
aI3
aI5
aI3
aI3
aI1
aI3
aI3
aI1
aI6
aI6
aI6
aI7
aI3
aI1
aI3
aI2
aI1
aI1
aI1
aI2
aI2
aI5
aI6
aI7
aI2
aI5
aI7
aI7
aI1
aI7
aI1
aI1
aI4
aI4
aI6
aI3
aI4
aI4
aI2
aI7
aI1
aI1
aI4
aI2
aI6
aI5
aI2
aI2
aI6
aI3
aI4
aI7
aI7
aI3
aI3
aI6
aI1
aI5
aI1
aI6
aI6
aI2
aI6
aI6
aI5
aI5
aI2
aI5
aI5
aI2
aI4
aI5
aI5
aI1
aI4
aI5
aI7
aI3
aI6
aI7
aI5
aI5
aI3
aI5
aI5
aI4
aI2
aI5
aI4
aI3
aI3
aI1
aI7
aI6
aI4
aI3
aI5
aI5
aI3
aI7
aI7
aI5
aI2
aI5
aI4
aI3
aI5
aI2
aI2
aI1
aI3
aI4
aI1
aI7
aI5
aI7
aI5
aI5
aI3
aI4
aI5
aI2
aI7
aI1
aI4
aI5
aI2
aI7
aI4
aI7
aI6
aI7
aI1
aI3
aI2
aI1
aI6
aI1
aI6
aI4
aI5
aI2
aI7
aI7
aI4
aI6
aI6
aI3
aI1
aI1
aI4
aI7
aI2
aI5
aI7
aI6
aI7
aI3
aI6
aI2
aI2
aI7
aI2
aI1
aI7
aI2
aI1
aI4
aI2
aI4
aI1
aI4
aI6
aI5
aI7
aI3
aI1
aI1
aI6
aI5
aI5
aI2
aI6
aI1
aI6
aI1
aI2
aI1
aI7
aI2
aI1
aI2
aI3
aI2
aI6
aI7
aI4
aI1
aI4
aI1
aI2
aI1
aI1
aI4
aI3
aI7
aI2
aI5
aI6
aI3
aI3
aI1
aI2
aI6
aI6
aI7
aI1
aI2
aI7
aI7
aI6
aI6
aI5
aI3
aI7
aI5
aI2
aI1
aI4
aI6
aI3
aI4
aI3
aI1
aI5
aI2
aI1
aI1
aI1
aI6
aI4
aI6
aI4
aI7
aI5
aI3
aI2
aI4
aI3
aI2
aI3
aI4
aI3
aI7
aI7
aI4
aI1
aI5
aI2
aI4
aI4
aI1
aI3
aI1
aI1
aI4
aI3
aI1
aI2
aI7
aI3
aI3
aI6
aI5
aI1
aI3
aI7
aI1
aI3
aI6
aI6
aI1
aI4
aI2
aI1
aI7
aI1
aI2
aI2
aI3
aI3
aI5
aI5
aI3
aI4
aI4
aI4
aI1
aI5
aI7
aI3
aI6
aI1
aI3
aI4
aI3
aI1
aI7
aI4
aI6
aI2
aI2
aI7
aI4
aI7
aI3
aI2
aI4
aI2
aI1
aI5
aI7
aI5
aI1
aI3
aI6
aI7
aI4
aI7
aI1
aI3
aI2
aI3
aI7
aI4
aI2
aI4
aI7
aI7
aI7
aI7
aI4
aI5
aI3
aI3
aI3
aI4
aI2
aI6
aI4
aI4
aI1
aI5
aI6
aI4
aI4
aI4
aI1
aI3
aI3
aI1
aI5
aI3
aI1
aI2
aI4
aI5
aI5
aI4
aI2
aI4
aI1
aI3
aI7
aI5
aI7
aI4
aI2
aI7
aI1
aI1
aI5
aI7
aI4
aI1
aI6
aI3
aI6
aI6
aI7
aI6
aI4
aI5
aI5
aI3
aI2
aI1
aI6
aI5
aI1
aI7
aI1
aI2
aI5
aI1
aI7
aI1
aI2
aI2
aI5
aI3
aI5
aI2
aI2
aI7
aI2
aI3
aI5
aI3
aI5
aI6
aI3
aI1
aI3
aI5
aI2
aI7
aI6
aI6
aI1
aI7
aI5
aI5
aI4
aI7
aI2
aI6
aI1
aI4
aI1
aI5
aI6
aI6
aI2
aI3
aI3
aI7
aI2
aI5
aI7
aI2
aI2
aI4
aI1
aI1
aI3
aI3
aI5
aI4
aI3
aI2
aI2
aI6
aI7
aI4
aI5
aI3
aI5
aI2
aI1
aI5
aI6
aI3
aI1
aI5
aI6
aI7
aI1
aI1
aI1
aI2
aI4
aI2
aI2
aI2
aI6
aI1
aI6
aI7
aI5
aI4
aI6
aI2
aI3
aI5
aI6
aI6
aI6
aI1
aI3
aI1
aI7
aI1
aI5
aI1
aI6
aI3
aI6
aI5
aI2
aI1
aI1
aI7
aI7
aI5
aI4
aI1
aI2
aI2
aI2
aI5
aI5
aI1
aI2
aI6
aI3
aI6
aI4
aI4
aI1
aI2
aI4
aI6
aI2
aI2
aI2
aI2
aI5
aI5
aI5
aI4
aI7
aI3
aI7
aI7
aI6
aI5
aI1
aI4
aI2
aI1
aI1
aI1
aI2
aI7
aI7
aI6
aI4
aI2
aI2
aI3
aI7
aI3
aI3
aI5
aI3
aI2
aI3
aI1
aI4
aI1
aI1
aI7
aI7
aI4
aI7
aI4
aI5
aI1
aI4
aI2
aI1
aI6
aI5
aI7
aI3
aI5
aI5
aI7
aI7
aI2
aI4
aI4
aI7
aI6
aI5
aI4
aI2
aI5
aI3
aI3
aI1
aI4
aI6
aI5
aI2
aI5
aI4
aI6
aI7
aI7
aI4
aI5
aI5
aI3
aI6
aI1
aI2
aI3
aI1
aI6
aI2
aI4
aI1
aI5
aI4
aI3
aI7
aI4
aI5
aI2
aI3
aI1
aI1
aI7
aI2
aI4
aI5
aI3
aI1
aI4
aI6
aI5
aI7
aI5
aI1
aI2
aI4
aI1
aI5
aI5
aI6
aI5
aI3
aI2
aI4
aI4
aI1
aI6
aI1
aI3
aI5
aI6
aI4
aI4
aI4
aI2
aI1
aI4
aI7
aI4
aI2
aI2
aI3
aI5
aI7
aI2
aI1
aI5
aI3
aI2
aI6
aI6
aI4
aI1
aI3
aI2
aI1
aI6
aI7
aI3
aI3
aI6
aI7
aI4
aI4
aI7
aI6
aI3
aI1
aI5
aI7
aI7
aI4
aI3
aI5
aI2
aI4
aI5
aI1
aI4
aI3
aI1
aI6
aI4
aI5
aI6
aI4
aI7
aI5
aI4
aI6
aI1
aI5
aI2
aI3
aI4
aI6
aI7
aI5
aI5
aI7
aI3
aI7
aI1
aI4
aI6
aI1
aI4
aI3
aI3
aI1
aI2
aI1
aI2
aI3
aI2
aI2
aI2
aI1
aI3
aI2
aI1
aI5
aI2
aI5
aI6
aI5
aI7
aI7
aI7
aI1
aI5
aI4
aI5
aI1
aI2
aI4
aI7
aI1
aI5
aI5
aI5
aI3
aI2
aI2
aI4
aI5
aI5
aI4
aI4
aI2
aI3
aI5
aI4
aI7
aI1
aI4
aI6
aI4
aI7
aI1
aI2
aI2
aI7
aI3
aI5
aI6
aI4
aI3
aI4
aI1
aI6
aI3
aI1
aI1
aI2
aI4
aI5
aI3
aI1
aI7
aI7
aI4
aI1
aI6
aI5
aI2
aI3
aI4
aI6
aI1
aI2
aI7
aI2
aI6
aI5
aI1
aI4
aI7
aI2
aI5
aI7
aI4
aI6
aI7
aI5
aI3
aI5
aI4
aI7
aI4
aI4
aI2
aI6
aI1
aI6
aI5
aI5
aI5
aI7
aI3
aI2
aI6
aI7
aI2
aI5
aI4
aI1
aI4
aI1
aI6
aI5
aI6
aI3
aI3
aI1
aI4
aI3
aI2
aI6
aI7
aI1
aI2
aI1
aI3
aI3
aI7
aI7
aI7
aI3
aI5
aI5
aI4
aI5
aI1
aI2
aI2
aI5
aI1
aI4
aI7
aI7
aI3
aI1
aI7
aI4
aI2
aI7
aI2
aI4
aI2
aI6
aI1
aI7
aI4
aI3
aI6
aI2
aI4
aI2
aI2
aI7
aI4
aI3
aI5
aI4
aI2
aI3
aI3
aI6
aI1
aI3
aI6
aI2
aI1
aI3
aI4
aI4
aI2
aI6
aI5
aI3
aI3
aI2
aI5
aI4
aI3
aI5
aI4
aI7
aI2
aI1
aI4
aI7
aI2
aI5
aI3
aI7
aI5
aI1
aI5
aI3
aI5
aI4
aI1
aI6
aI6
aI1
aI6
aI6
aI6
aI7
aI6
aI6
aI5
aI3
aI3
aI5
aI1
aI4
aI1
aI5
aI7
aI1
aI3
aI3
aI7
aI5
aI2
aI2
aI4
aI3
aI7
aI1
aI3
aI5
aI7
aI4
aI2
aI7
aI3
aI3
aI5
aI1
aI5
aI7
aI7
aI2
aI2
aI4
aI6
aI2
aI5
aI7
aI1
aI4
aI1
aI3
aI7
aI6
aI4
aI4
aI5
aI6
aI2
aI5
aI1
aI6
aI2
aI5
aI3
aI6
aI1
aI6
aI5
aI1
aI6
aI3
aI4
aI4
aI6
aI2
aI4
aI6
aI2
aI1
aI7
aI5
aI1
aI6
aI1
aI3
aI7
aI4
aI4
aI7
aI6
aI1
aI5
aI2
aI6
aI5
aI2
aI3
aI4
aI4
aI5
aI4
aI7
aI3
aI5
aI4
aI2
aI6
aI3
aI1
aI5
aI2
aI4
aI5
aI2
aI7
aI3
aI4
aI3
aI5
aI6
aI5
aI2
aI4
aI4
aI7
aI4
aI3
aI1
aI6
aI1
aI4
aI5
aI6
aI3
aI7
aI2
aI1
aI3
aI6
aI3
aI7
aI5
aI4
aI2
aI4
aI5
aI7
aI5
aI4
aI5
aI4
aI2
aI7
aI6
aI6
aI4
aI1
aI3
aI2
aI3
aI5
aI4
aI1
aI6
aI5
aI2
aI7
aI7
aI1
aI7
aI4
aI2
aI6
aI4
aI4
aI5
aI4
aI3
aI5
aI3
aI6
aI3
aI7
aI6
aI2
aI4
aI3
aI2
aI1
aI2
aI3
aI6
aI1
aI7
aI7
aI4
aI3
aI3
aI6
aI2
aI7
aI1
aI1
aI7
aI3
aI2
aI6
aI4
aI5
aI7
aI7
aI5
aI2
aI1
aI2
aI6
aI2
aI2
aI2
aI4
aI2
aI4
aI7
aI1
aI5
aI2
aI4
aI1
aI6
aI6
aI1
aI5
aI3
aI2
aI2
aI4
aI6
aI5
aI2
aI1
aI5
aI7
aI2
aI5
aI2
aI3
aI5
aI2
aI7
aI3
aI1
aI7
aI6
aI7
aI5
aI3
aI4
aI5
aI4
aI6
aI2
aI7
aI1
aI1
aI5
aI4
aI3
aI7
aI1
aI5
aI7
aI4
aI3
aI4
aI7
aI1
aI2
aI4
aI7
aI4
aI7
aI2
aI4
aI4
aI6
aI3
aI1
aI3
aI4
aI4
aI7
aI7
aI5
aI4
aI7
aI7
aI2
aI3
aI3
aI5
aI4
aI6
aI7
aI3
aI3
aI3
aI2
aI6
aI4
aI4
aI5
aI4
aI6
aI6
aI4
aI7
aI3
aI2
aI3
aI4
aI1
aI2
aI7
aI3
aI3
aI6
aI6
aI7
aI7
aI7
aI4
aI6
aI3
aI4
aI6
aI5
aI5
aI5
aI3
aI7
aI6
aI5
aI7
aI1
aI7
aI2
aI3
aI4
aI1
aI5
aI1
aI7
aI3
aI3
aI7
aI3
aI1
aI6
aI5
aI7
aI7
aI4
aI1
aI5
aI6
aI7
aI2
aI5
aI6
aI4
aI5
aI3
aI2
aI7
aI2
aI7
aI4
aI2
aI4
aI4
aI5
aI3
aI1
aI6
aI2
aI5
aI2
aI3
aI3
aI2
aI2
aI2
aI1
aI3
aI4
aI4
aI4
aI4
aI1
aI5
aI3
aI1
aI7
aI5
aI4
aI6
aI3
aI4
aI5
aI1
aI3
aI2
aI5
aI7
aI5
aI4
aI1
aI1
aI4
aI4
aI5
aI3
aI1
aI7
aI2
aI3
aI7
aI3
aI2
aI4
aI7
aI3
aI7
aI5
aI4
aI4
aI5
aI2
aI2
aI7
aI7
aI6
aI6
aI7
aI1
aI3
aI4
aI5
aI1
aI6
aI3
aI1
aI7
aI6
aI7
aI6
aI1
aI6
aI4
aI4
aI5
aI4
aI6
aI1
aI7
aI2
aI2
aI6
aI6
aI2
aI2
aI6
aI7
aI1
aI3
aI3
aI5
aI7
aI1
aI7
aI2
aI6
aI4
aI2
aI5
aI4
aI1
aI7
aI4
aI2
aI5
aI2
aI6
aI4
aI4
aI2
aI7
aI6
aI7
aI2
aI3
aI7
aI1
aI1
aI1
aI4
aI1
aI1
aI2
aI5
aI6
aI5
aI3
aI6
aI5
aI3
aI1
aI3
aI3
aI2
aI5
aI6
aI3
aI6
aI7
aI1
aI7
aI7
aI1
aI4
aI4
aI3
aI6
aI6
aI7
aI1
aI5
aI4
aI5
aI6
aI4
aI3
aI5
aI3
aI2
aI7
aI2
aI7
aI4
aI6
aI5
aI7
aI6
aI4
aI4
aI3
aI2
aI3
aI7
aI4
aI4
aI5
aI3
aI7
aI7
aI2
aI4
aI6
aI1
aI2
aI4
aI4
aI6
aI1
aI7
aI5
aI3
aI1
aI4
aI1
aI2
aI6
aI7
aI4
aI7
aI4
aI3
aI5
aI1
aI5
aI7
aI7
aI3
aI6
aI2
aI3
aI3
aI5
aI1
aI3
aI1
aI3
aI7
aI3
aI7
aI4
aI3
aI5
aI7
aI6
aI5
aI3
aI6
aI7
aI2
aI4
aI2
aI3
aI7
aI7
aI1
aI1
aI4
aI4
aI6
aI7
aI6
aI3
aI6
aI3
aI3
aI6
aI3
aI2
aI7
aI4
aI3
aI2
aI6
aI2
aI3
aI5
aI3
aI1
aI7
aI4
aI1
aI6
aI7
aI1
aI1
aI1
aI6
aI2
aI5
aI5
aI1
aI6
aI4
aI7
aI2
aI2
aI5
aI2
aI5
aI5
aI6
aI2
aI5
aI3
aI7
aI1
aI1
aI1
aI1
aI7
aI6
aI2
aI7
aI4
aI1
aI5
aI4
aI2
aI7
aI6
aI7
aI1
aI5
aI1
aI2
aI7
aI1
aI1
aI6
aI5
aI3
aI4
aI5
aI6
aI1
aI3
aI5
aI4
aI1
aI2
aI4
aI4
aI1
aI1
aI7
aI4
aI6
aI7
aI7
aI7
aI7
aI4
aI4
aI2
aI3
aI7
aI2
aI7
aI1
aI1
aI6
aI6
aI3
aI4
aI6
aI5
aI1
aI6
aI1
aI1
aI1
aI6
aI2
aI3
aI7
aI7
aI1
aI5
aI3
aI4
aI7
aI1
aI4
aI5
aI2
aI7
aI4
aI2
aI5
aI5
aI6
aI2
aI4
aI6
aI2
aI1
aI4
aI6
aI6
aI1
aI6
aI3
aI7
aI3
aI7
aI4
aI2
aI2
aI2
aI5
aI6
aI6
aI5
aI2
aI1
aI7
aI3
aI2
aI3
aI2
aI1
aI1
aI4
aI6
aI7
aI3
aI2
aI5
aI7
aI4
aI3
aI4
aI5
aI3
aI5
aI5
aI4
aI6
aI6
aI7
aI5
aI7
aI1
aI4
aI1
aI2
aI1
aI6
aI3
aI6
aI6
aI7
aI7
aI6
aI7
aI7
aI5
aI5
aI7
aI2
aI7
aI1
aI3
aI2
aI7
aI1
aI7
aI5
aI7
aI2
aI5
aI2
aI7
aI4
aI2
aI1
aI7
aI4
aI1
aI3
aI1
aI3
aI4
aI5
aI6
aI6
aI7
aI4
aI7
aI5
aI4
aI6
aI6
aI4
aI1
aI7
aI5
aI3
aI5
aI6
aI6
aI4
aI1
aI4
aI1
aI3
aI5
aI3
aI5
aI2
aI4
aI3
aI3
aI5
aI7
aI7
aI5
aI5
aI4
aI5
aI1
aI5
aI2
aI5
aI6
aI2
aI3
aI7
aI1
aI7
aI6
aI4
aI1
aI5
aI3
aI3
aI6
aI1
aI7
aI4
aI4
aI4
aI3
aI5
aI4
aI1
aI5
aI3
aI7
aI4
aI7
aI2
aI7
aI4
aI5
aI6
aI5
aI7
aI3
aI7
aI3
aI2
aI1
aI1
aI1
aI3
aI3
aI4
aI2
aI6
aI6
aI4
aI2
aI5
aI2
aI3
aI4
aI3
aI4
aI6
aI2
aI3
aI1
aI6
aI4
aI2
aI7
aI6
aI6
aI5
aI4
aI1
aI5
aI6
aI3
aI7
aI2
aI5
aI5
aI5
aI1
aI4
aI6
aI6
aI4
aI5
aI5
aI1
aI3
aI7
aI1
aI5
aI4
aI4
aI2
aI1
aI1
aI7
aI7
aI1
aI2
aI3
aI2
aI7
aI4
aI1
aI3
aI7
aI6
aI6
aI4
aI3
aI6
aI4
aI2
aI6
aI6
aI5
aI2
aI3
aI5
aI5
aI6
aI5
aI5
aI3
aI4
aI3
aI7
aI4
aI6
aI1
aI5
aI4
aI2
aI2
aI4
aI2
aI6
aI5
aI1
aI3
aI4
aI4
aI6
aI5
aI3
aI5
aI6
aI7
aI5
aI7
aI7
aI7
aI7
aI4
aI2
aI6
aI7
aI6
aI7
aI4
aI7
aI2
aI1
aI2
aI3
aI4
aI5
aI4
aI6
aI2
aI7
aI3
aI2
aI2
aI5
aI2
aI7
aI7
aI3
aI3
aI6
aI1
aI1
aI4
aI7
aI1
aI5
aI4
aI4
aI3
aI6
aI1
aI7
aI5
aI6
aI7
aI5
aI4
aI5
aI4
aI2
aI5
aI3
aI6
aI6
aI5
aI6
aI2
aI4
aI2
aI7
aI6
aI6
aI5
aI6
aI5
aI5
aI1
aI1
aI7
aI1
aI5
aI2
aI6
aI1
aI5
aI4
aI3
aI2
aI3
aI2
aI2
aI1
aI4
aI6
aI1
aI6
aI2
aI6
aI6
aI3
aI7
aI2
aI4
aI1
aI3
aI4
aI6
aI1
aI5
aI3
aI5
aI7
aI2
aI7
aI6
aI5
aI1
aI2
aI4
aI1
aI4
aI3
aI3
aI7
aI7
aI6
aI3
aI6
aI3
aI4
aI6
aI1
aI5
aI2
aI6
aI1
aI2
aI4
aI5
aI3
aI3
aI5
aI6
aI5
aI7
aI3
aI4
aI3
aI6
aI6
aI1
aI7
aI5
aI7
aI4
aI2
aI3
aI2
aI6
aI1
aI2
aI4
aI3
aI4
aI4
aI7
aI2
aI5
aI1
aI1
aI3
aI1
aI6
aI6
aI6
aI5
aI1
aI6
aI7
aI5
aI4
aI1
aI7
aI7
aI5
aI4
aI6
aI7
aI5
aI4
aI5
aI7
aI1
aI2
aI1
aI1
aI1
aI2
aI2
aI1
aI6
aI1
aI5
aI5
aI1
aI6
aI6
aI2
aI4
aI5
aI3
aI3
aI3
aI4
aI5
aI4
aI5
aI5
aI3
aI5
aI3
aI6
aI1
aI2
aI7
aI5
aI5
aI7
aI5
aI3
aI6
aI5
aI7
aI7
aI1
aI6
aI3
aI4
aI7
aI5
aI5
aI2
aI2
aI6
aI5
aI4
aI7
aI3
aI2
aI1
aI7
aI6
aI4
aI2
aI6
aI2
aI3
aI7
aI1
aI6
aI1
aI2
aI7
aI4
aI5
aI3
aI3
aI2
aI7
aI1
aI5
aI3
aI2
aI7
aI2
aI6
aI6
aI3
aI1
aI7
aI1
aI5
aI4
aI5
aI1
aI2
aI1
aI4
aI3
aI7
aI6
aI1
aI6
aI1
aI2
aI4
aI4
aI1
aI4
aI5
aI3
aI3
aI4
aI7
aI3
aI5
aI3
aI6
aI3
aI1
aI5
aI4
aI1
aI1
aI1
aI3
aI5
aI1
aI3
aI2
aI6
aI4
aI4
aI5
aI1
aI2
aI7
aI2
aI5
aI3
aI1
aI7
aI4
aI5
aI1
aI7
aI6
aI2
aI5
aI4
aI3
aI1
aI1
aI5
aI6
aI6
aI3
aI1
aI2
aI4
aI2
aI2
aI3
aI6
aI3
aI3
aI7
aI4
aI6
aI1
aI3
aI3
aI5
aI5
aI5
aI4
aI6
aI2
aI6
aI2
aI7
aI3
aI6
aI5
aI1
aI7
aI7
aI6
aI2
aI6
aI6
aI6
aI5
aI4
aI1
aI4
aI6
aI2
aI4
aI6
aI6
aI1
aI6
aI6
aI3
aI1
aI1
aI5
aI7
aI3
aI1
aI3
aI2
aI1
aI6
aI5
aI6
aI1
aI3
aI2
aI4
aI7
aI5
aI7
aI6
aI3
aI2
aI2
aI4
aI1
aI4
aI7
aI6
aI5
aI4
aI3
aI4
aI7
aI3
aI1
aI1
aI5
aI5
aI7
aI1
aI5
aI4
aI7
aI2
aI5
aI7
aI2
aI4
aI2
aI4
aI2
aI4
aI4
aI6
aI7
aI6
aI4
aI5
aI5
aI3
aI7
aI3
aI2
aI4
aI6
aI2
aI7
aI1
aI7
aI4
aI2
aI6
aI1
aI7
aI3
aI4
aI2
aI4
aI2
aI1
aI4
aI6
aI3
aI5
aI1
aI1
aI1
aI6
aI7
aI3
aI4
aI2
aI3
aI2
aI6
aI7
aI2
aI1
aI6
aI1
aI2
aI1
aI3
aI4
aI2
aI6
aI3
aI6
aI6
aI4
aI6
aI1
aI7
aI1
aI7
aI3
aI6
aI2
aI4
aI5
aI5
aI3
aI6
aI2
aI6
aI5
aI2
aI7
aI2
aI3
aI3
aI6
aI1
aI3
aI7
aI2
aI1
aI3
aI4
aI7
aI5
aI2
aI6
aI3
aI2
aI2
aI5
aI6
aI1
aI3
aI3
aI3
aI1
aI7
aI7
aI6
aI3
aI3
aI2
aI5
aI1
aI1
aI3
aI6
aI2
aI1
aI6
aI6
aI3
aI1
aI7
aI2
aI6
aI7
aI2
aI1
aI5
aI2
aI5
aI4
aI4
aI2
aI7
aI6
aI1
aI5
aI4
aI3
aI5
aI6
aI1
aI3
aI5
aI2
aI3
aI6
aI2
aI7
aI5
aI5
aI6
aI7
aI1
aI5
aI3
aI5
aI5
aI4
aI2
aI4
aI3
aI4
aI6
aI3
aI3
aI7
aI1
aI6
aI1
aI1
aI7
aI5
aI6
aI1
aI2
aI3
aI2
aI1
aI2
aI7
aI4
aI4
aI5
aI5
aI5
aI1
aI3
aI4
aI3
aI5
aI6
aI4
aI1
aI6
aI4
aI2
aI2
aI2
aI5
aI1
aI2
aI5
aI4
aI5
aI1
aI4
aI6
aI5
aI2
aI7
aI6
aI7
aI5
aI5
aI3
aI2
aI1
aI2
aI1
aI4
aI2
aI6
aI6
aI2
aI4
aI3
aI4
aI2
aI1
aI7
aI3
aI3
aI4
aI5
aI1
aI2
aI7
aI6
aI1
aI6
aI3
aI7
aI5
aI7
aI4
aI7
aI4
aI4
aI1
aI3
aI6
aI1
aI5
aI7
aI6
aI4
aI2
aI6
aI7
aI3
aI3
aI2
aI6
aI6
aI1
aI6
aI7
aI2
aI5
aI3
aI1
aI4
aI2
aI6
aI7
aI1
aI5
aI6
aI7
aI6
aI3
aI2
aI2
aI2
aI2
aI6
aI6
aI7
aI7
aI7
aI6
aI6
aI7
aI4
aI4
aI3
aI3
aI7
aI4
aI2
aI3
aI3
aI6
aI1
aI3
aI4
aI2
aI6
aI1
aI2
aI3
aI5
aI7
aI3
aI5
aI5
aI5
aI2
aI5
aI6
aI2
aI3
aI1
aI1
aI7
aI5
aI2
aI2
aI3
aI5
aI6
aI5
aI6
aI5
aI4
aI2
aI6
aI4
aI1
aI6
aI3
aI7
aI7
aI3
aI3
aI7
aI7
aI4
aI7
aI4
aI7
aI4
aI7
aI3
aI3
aI7
aI5
aI3
aI3
aI2
aI4
aI7
aI5
aI1
aI1
aI6
aI3
aI3
aI1
aI7
aI1
aI2
aI2
aI6
aI1
aI7
aI1
aI2
aI7
aI6
aI3
aI7
aI5
aI6
aI7
aI2
aI3
aI3
aI6
aI5
aI2
aI4
aI2
aI3
aI2
aI3
aI1
aI5
aI7
aI3
aI1
aI5
aI5
aI3
aI3
aI5
aI6
aI7
aI7
aI1
aI3
aI5
aI6
aI4
aI1
aI7
aI5
aI7
aI4
aI4
aI3
aI1
aI6
aI6
aI6
aI1
aI2
aI2
aI7
aI3
aI7
aI5
aI5
aI2
aI3
aI4
aI1
aI5
aI7
aI1
aI2
aI6
aI3
aI1
aI3
aI1
aI6
aI7
aI4
aI7
aI7
aI4
aI7
aI4
aI5
aI1
aI5
aI1
aI5
aI6
aI6
aI7
aI3
aI5
aI5
aI7
aI5
aI4
aI2
aI2
aI5
aI4
aI5
aI1
aI2
aI2
aI4
aI4
aI4
aI4
aI3
aI7
aI6
aI2
aI3
aI3
aI4
aI5
aI5
aI1
aI2
aI7
aI1
aI5
aI7
aI3
aI5
aI2
aI1
aI2
aI2
aI1
aI2
aI2
aI6
aI4
aI2
aI1
aI3
aI3
aI1
aI5
aI2
aI3
aI3
aI6
aI6
aI1
aI3
aI1
aI4
aI3
aI4
aI2
aI1
aI7
aI2
aI2
aI1
aI1
aI1
aI2
aI3
aI1
aI5
aI2
aI5
aI2
aI1
aI5
aI7
aI2
aI6
aI3
aI3
aI2
aI2
aI3
aI2
aI6
aI7
aI4
aI1
aI1
aI5
aI3
aI1
aI7
aI3
aI3
aI6
aI3
aI7
aI1
aI5
aI7
aI4
aI1
aI1
aI4
aI7
aI2
aI2
aI6
aI7
aI4
aI5
aI7
aI7
aI1
aI4
aI3
aI3
aI3
aI3
aI1
aI4
aI6
aI2
aI4
aI1
aI4
aI7
aI7
aI5
aI6
aI4
aI7
aI5
aI1
aI1
aI5
aI2
aI1
aI4
aI3
aI4
aI4
aI4
aI4
aI3
aI7
aI2
aI5
aI3
aI2
aI2
aI7
aI5
aI3
aI7
aI2
aI5
aI1
aI3
aI3
aI3
aI3
aI4
aI7
aI2
aI3
aI5
aI6
aI2
aI2
aI2
aI7
aI2
aI4
aI6
aI3
aI3
aI2
aI5
aI7
aI3
aI7
aI4
aI3
aI4
aI6
aI6
aI1
aI6
aI4
aI1
aI6
aI2
aI5
aI4
aI3
aI2
aI2
aI5
aI6
aI6
aI5
aI1
aI4
aI5
aI3
aI2
aI3
aI6
aI3
aI6
aI3
aI7
aI7
aI7
aI1
aI1
aI4
aI7
aI4
aI7
aI6
aI1
aI3
aI4
aI2
aI6
aI6
aI5
aI2
aI5
aI1
aI6
aI4
aI6
aI4
aI2
aI5
aI3
aI5
aI4
aI2
aI2
aI4
aI4
aI5
aI3
aI6
aI3
aI7
aI2
aI3
aI2
aI7
aI6
aI1
aI1
aI6
aI1
aI7
aI6
aI5
aI4
aI2
aI3
aI3
aI3
aI1
aI2
aI2
aI6
aI6
aI7
aI5
aI5
aI1
aI5
aI3
aI6
aI3
aI6
aI1
aI5
aI2
aI4
aI2
aI4
aI4
aI4
aI4
aI1
aI3
aI1
aI7
aI7
aI1
aI7
aI2
aI6
aI7
aI7
aI3
aI5
aI3
aI7
aI1
aI7
aI2
aI6
aI7
aI5
aI4
aI2
aI5
aI2
aI5
aI1
aI6
aI4
aI1
aI5
aI7
aI6
aI3
aI3
aI6
aI5
aI6
aI5
aI7
aI4
aI3
aI7
aI5
aI4
aI1
aI2
aI3
aI7
aI4
aI5
aI7
aI3
aI2
aI2
aI6
aI5
aI1
aI1
aI6
aI3
aI4
aI1
aI7
aI6
aI6
aI7
aI1
aI3
aI3
aI2
aI7
aI7
aI6
aI5
aI2
aI2
aI4
aI2
aI3
aI2
aI2
aI2
aI7
aI2
aI3
aI4
aI4
aI5
aI5
aI2
aI5
aI7
aI3
aI4
aI4
aI5
aI3
aI5
aI7
aI4
aI7
aI4
aI3
aI5
aI7
aI5
aI2
aI2
aI2
aI6
aI5
aI4
aI6
aI7
aI6
aI2
aI7
aI7
aI5
aI3
aI5
aI7
aI3
aI1
aI1
aI5
aI1
aI5
aI3
aI1
aI5
aI1
aI5
aI6
aI3
aI7
aI4
aI4
aI6
aI3
aI5
aI6
aI6
aI2
aI5
aI6
aI1
aI5
aI7
aI6
aI2
aI6
aI3
aI5
aI5
aI3
aI3
aI4
aI3
aI6
aI5
aI6
aI3
aI7
aI1
aI1
aI6
aI3
aI6
aI2
aI6
aI3
aI1
aI5
aI6
aI2
aI4
aI2
aI5
aI2
aI3
aI2
aI1
aI2
aI3
aI1
aI1
aI3
aI1
aI7
aI1
aI5
aI3
aI4
aI7
aI6
aI1
aI3
aI4
aI2
aI3
aI5
aI3
aI5
aI5
aI6
aI2
aI5
aI7
aI5
aI5
aI6
aI6
aI4
aI3
aI1
aI4
aI2
aI1
aI5
aI1
aI2
aI1
aI7
aI6
aI7
aI7
aI3
aI7
aI1
aI6
aI5
aI7
aI4
aI4
aI4
aI5
aI3
aI6
aI7
aI6
aI3
aI4
aI3
aI1
aI7
aI7
aI1
aI4
aI3
aI3
aI7
aI2
aI6
aI3
aI4
aI3
aI2
aI5
aI2
aI3
aI4
aI7
aI6
aI2
aI5
aI2
aI3
aI5
aI6
aI7
aI5
aI2
aI2
aI1
aI3
aI5
aI3
aI5
aI7
aI6
aI6
aI7
aI7
aI2
aI1
aI5
aI3
aI4
aI1
aI2
aI3
aI3
aI6
aI1
aI4
aI4
aI5
aI4
aI1
aI4
aI6
aI2
aI1
aI4
aI2
aI2
aI5
aI6
aI6
aI2
aI6
aI5
aI1
aI3
aI7
aI7
aI1
aI5
aI4
aI5
aI6
aI4
aI1
aI7
aI1
aI3
aI4
aI5
aI1
aI2
aI6
aI6
aI2
aI3
aI2
aI5
aI4
aI3
aI7
aI4
aI4
aI4
aI3
aI6
aI1
aI6
aI5
aI4
aI3
aI5
aI3
aI3
aI2
aI3
aI2
aI5
aI2
aI6
aI5
aI2
aI5
aI6
aI2
aI2
aI6
aI5
aI4
aI2
aI4
aI2
aI2
aI3
aI3
aI2
aI2
aI5
aI7
aI5
aI5
aI2
aI7
aI2
aI5
aI5
aI4
aI7
aI3
aI6
aI6
aI4
aI5
aI7
aI7
aI7
aI6
aI4
aI6
aI6
aI6
aI6
aI5
aI3
aI7
aI6
aI5
aI5
aI2
aI4
aI1
aI5
aI3
aI6
aI4
aI7
aI7
aI7
aI2
aI1
aI2
aI2
aI6
aI4
aI6
aI6
aI7
aI3
aI5
aI2
aI6
aI4
aI5
aI6
aI3
aI5
aI7
aI5
aI2
aI1
aI6
aI7
aI1
aI5
aI5
aI7
aI6
aI5
aI1
aI5
aI4
aI5
aI7
aI3
aI6
aI4
aI1
aI1
aI3
aI2
aI2
aI3
aI1
aI4
aI3
aI5
aI2
aI6
aI3
aI5
aI2
aI1
aI7
aI7
aI2
aI3
aI2
aI2
aI7
aI7
aI1
aI1
aI1
aI1
aI7
aI7
aI4
aI7
aI6
aI7
aI2
aI3
aI3
aI2
aI4
aI7
aI2
aI1
aI4
aI1
aI2
aI2
aI2
aI4
aI3
aI3
aI1
aI7
aI7
aI4
aI3
aI6
aI6
aI7
aI3
aI5
aI3
aI2
aI7
aI3
aI7
aI1
aI7
aI5
aI3
aI3
aI1
aI4
aI5
aI1
aI2
aI2
aI3
aI1
aI2
aI7
aI2
aI6
aI1
aI3
aI2
aI4
aI2
aI4
aI5
aI5
aI7
aI5
aI6
aI5
aI7
aI1
aI1
aI7
aI2
aI2
aI6
aI4
aI3
aI5
aI3
aI7
aI7
aI3
aI5
aI2
aI7
aI3
aI5
aI2
aI4
aI3
aI1
aI6
aI4
aI6
aI5
aI7
aI7
aI3
aI3
aI7
aI5
aI1
aI3
aI7
aI6
aI5
aI6
aI4
aI4
aI2
aI3
aI4
aI1
aI6
aI7
aI7
aI5
aI3
aI4
aI5
aI3
aI5
aI4
aI6
aI6
aI5
aI3
aI5
aI2
aI1
aI5
aI7
aI5
aI5
aI2
aI7
aI2
aI2
aI2
aI6
aI6
aI3
aI3
aI7
aI4
aI2
aI6
aI2
aI6
aI4
aI1
aI1
aI6
aI1
aI1
aI1
aI6
aI4
aI5
aI7
aI7
aI3
aI2
aI3
aI7
aI7
aI1
aI6
aI2
aI7
aI3
aI4
aI7
aI5
aI1
aI4
aI4
aI6
aI4
aI6
aI3
aI3
aI4
aI1
aI5
aI3
aI4
aI4
aI2
aI2
aI6
aI6
aI4
aI4
aI3
aI1
aI7
aI6
aI3
aI2
aI1
aI7
aI1
aI5
aI4
aI1
aI7
aI1
aI2
aI2
aI6
aI2
aI6
aI1
aI2
aI4
aI3
aI5
aI1
aI4
aI1
aI7
aI7
aI2
aI7
aI6
aI1
aI1
aI1
aI2
aI7
aI4
aI4
aI5
aI2
aI7
aI7
aI6
aI6
aI4
aI5
aI2
aI5
aI5
aI3
aI2
aI1
aI1
aI2
aI5
aI3
aI1
aI3
aI1
aI7
aI4
aI3
aI6
aI2
aI2
aI5
aI4
aI4
aI4
aI4
aI4
aI5
aI1
aI1
aI4
aI7
aI4
aI5
aI4
aI4
aI3
aI5
aI4
aI1
aI4
aI1
aI7
aI5
aI5
aI6
aI2
aI7
aI2
aI1
aI6
aI2
aI5
aI2
aI7
aI7
aI3
aI6
aI1
aI1
aI7
aI2
aI1
aI4
aI1
aI6
aI6
aI5
aI3
aI4
aI1
aI1
aI5
aI4
aI1
aI1
aI6
aI5
aI4
aI4
aI2
aI7
aI4
aI2
aI7
aI7
aI2
aI7
aI5
aI4
aI2
aI3
aI7
aI1
aI6
aI3
aI6
aI7
aI1
aI2
aI5
aI7
aI4
aI3
aI1
aI4
aI6
aI3
aI2
aI6
aI5
aI7
aI3
aI1
aI1
aI7
aI4
aI2
aI6
aI5
aI3
aI7
aI1
aI4
aI5
aI2
aI7
aI4
aI1
aI5
aI6
aI5
aI4
aI5
aI1
aI6
aI2
aI4
aI3
aI2
aI5
aI2
aI3
aI3
aI1
aI2
aI4
aI6
aI5
aI1
aI3
aI3
aI2
aI7
aI4
aI4
aI1
aI1
aI4
aI1
aI7
aI4
aI5
aI7
aI7
aI2
aI2
aI2
aI6
aI7
aI4
aI2
aI7
aI7
aI5
aI7
aI3
aI5
aI2
aI7
aI4
aI3
aI2
aI4
aI7
aI3
aI1
aI1
aI7
aI7
aI7
aI1
aI6
aI6
aI5
aI2
aI3
aI4
aI6
aI3
aI5
aI4
aI6
aI2
aI6
aI6
aI7
aI5
aI4
aI7
aI1
aI1
aI5
aI5
aI7
aI7
aI1
aI2
aI5
aI5
aI4
aI3
aI2
aI6
aI2
aI2
aI6
aI4
aI2
aI5
aI7
aI6
aI1
aI6
aI1
aI4
aI2
aI1
aI7
aI2
aI1
aI1
aI7
aI3
aI6
aI2
aI4
aI7
aI3
aI3
aI4
aI7
aI5
aI2
aI7
aI3
aI5
aI5
aI2
aI4
aI4
aI2
aI7
aI1
aI2
aI2
aI7
aI2
aI2
aI5
aI1
aI5
aI2
aI1
aI4
aI3
aI2
aI3
aI4
aI3
aI7
aI4
aI3
aI2
aI3
aI6
aI6
aI3
aI7
aI3
aI2
aI5
aI6
aI6
aI4
aI5
aI5
aI4
aI4
aI3
aI7
aI5
aI7
aI1
aI1
aI6
aI3
aI2
aI2
aI6
aI6
aI7
aI6
aI1
aI5
aI7
aI5
aI4
aI2
aI2
aI3
aI6
aI2
aI5
aI7
aI5
aI4
aI2
aI5
aI3
aI2
aI5
aI7
aI1
aI4
aI7
aI6
aI2
aI5
aI4
aI2
aI5
aI5
aI2
aI5
aI2
aI5
aI3
aI7
aI2
aI6
aI6
aI3
aI4
aI4
aI4
aI6
aI4
aI1
aI3
aI7
aI1
aI5
aI1
aI1
aI4
aI6
aI5
aI5
aI5
aI5
aI3
aI5
aI1
aI4
aI1
aI6
aI1
aI6
aI6
aI1
aI6
aI1
aI5
aI3
aI2
aI5
aI4
aI1
aI5
aI7
aI7
aI7
aI2
aI2
aI6
aI1
aI1
aI4
aI2
aI5
aI1
aI1
aI5
aI3
aI2
aI5
aI4
aI3
aI1
aI3
aI5
aI5
aI6
aI3
aI6
aI4
aI6
aI1
aI4
aI7
aI2
aI5
aI5
aI4
aI7
aI6
aI3
aI7
aI4
aI7
aI7
aI2
aI4
aI6
aI7
aI5
aI2
aI7
aI5
aI5
aI7
aI3
aI4
aI2
aI3
aI5
aI5
aI3
aI6
aI4
aI4
aI4
aI3
aI2
aI6
aI6
aI5
aI7
aI2
aI2
aI5
aI4
aI4
aI6
aI4
aI4
aI6
aI2
aI5
aI1
aI3
aI6
aI7
aI7
aI7
aI5
aI6
aI3
aI5
aI2
aI7
aI2
aI3
aI3
aI4
aI5
aI4
aI4
aI5
aI4
aI6
aI5
aI1
aI5
aI1
aI5
aI5
aI4
aI7
aI3
aI4
aI6
aI2
aI4
aI7
aI5
aI7
aI4
aI2
aI3
aI7
aI2
aI3
aI7
aI5
aI6
aI3
aI7
aI1
aI2
aI2
aI2
aI4
aI3
aI4
aI4
aI7
aI7
aI3
aI2
aI4
aI7
aI3
aI3
aI2
aI6
aI6
aI7
aI7
aI4
aI2
aI2
aI4
aI4
aI3
aI6
aI3
aI7
aI5
aI5
aI1
aI4
aI6
aI5
aI5
aI7
aI4
aI7
aI6
aI4
aI3
aI2
aI1
aI2
aI2
aI7
aI7
aI2
aI5
aI7
aI4
aI7
aI2
aI6
aI2
aI7
aI2
aI5
aI7
aI5
aI3
aI7
aI3
aI7
aI2
aI5
aI7
aI6
aI5
aI5
aI5
aI3
aI3
aI7
aI1
aI7
aI6
aI1
aI6
aI4
aI2
aI3
aI4
aI3
aI1
aI7
aI5
aI3
aI1
aI5
aI6
aI4
aI4
aI5
aI4
aI2
aI1
aI7
aI1
aI2
aI4
aI4
aI6
aI1
aI3
aI2
aI4
aI1
aI2
aI3
aI1
aI3
aI7
aI3
aI4
aI6
aI3
aI6
aI3
aI5
aI6
aI7
aI2
aI7
aI2
aI1
aI1
aI4
aI2
aI3
aI2
aI1
aI5
aI6
aI7
aI3
aI7
aI3
aI2
aI2
aI7
aI6
aI4
aI3
aI3
aI2
aI1
aI1
aI1
aI1
aI3
aI7
aI2
aI5
aI7
aI4
aI7
aI3
aI2
aI6
aI2
aI7
aI2
aI2
aI1
aI6
aI3
aI1
aI5
aI2
aI2
aI5
aI1
aI2
aI6
aI4
aI6
aI2
aI4
aI2
aI1
aI1
aI6
aI6
aI4
aI3
aI1
aI3
aI1
aI3
aI5
aI1
aI7
aI3
aI3
aI3
aI3
aI6
aI5
aI6
aI2
aI2
aI7
aI6
aI1
aI3
aI3
aI1
aI4
aI6
aI7
aI4
aI7
aI6
aI2
aI2
aI2
aI7
aI6
aI5
aI5
aI4
aI7
aI6
aI5
aI3
aI3
aI3
aI2
aI7
aI1
aI1
aI7
aI7
aI1
aI3
aI3
aI6
aI6
aI5
aI3
aI6
aI3
aI6
aI3
aI6
aI1
aI5
aI4
aI5
aI4
aI1
aI3
aI1
aI5
aI1
aI2
aI7
aI3
aI4
aI4
aI2
aI1
aI1
aI4
aI3
aI5
aI5
aI2
aI3
aI3
aI3
aI2
aI5
aI4
aI5
aI7
aI5
aI5
aI3
aI2
aI1
aI7
aI4
aI2
aI3
aI7
aI4
aI1
aI4
aI7
aI6
aI1
aI2
aI3
aI1
aI3
aI1
aI7
aI2
aI5
aI5
aI2
aI1
aI1
aI4
aI3
aI2
aI3
aI3
aI6
aI4
aI5
aI5
aI5
aI1
aI7
aI1
aI1
aI4
aI6
aI2
aI4
aI1
aI1
aI6
aI7
aI2
aI3
aI6
aI2
aI6
aI5
aI5
aI5
aI3
aI7
aI3
aI6
aI7
aI7
aI3
aI7
aI4
aI4
aI2
aI5
aI7
aI6
aI3
aI4
aI2
aI2
aI2
aI3
aI1
aI5
aI1
aI7
aI1
aI3
aI6
aI3
aI2
aI4
aI5
aI6
aI7
aI6
aI3
aI1
aI3
aI2
aI7
aI2
aI1
aI1
aI5
aI2
aI1
aI7
aI5
aI1
aI6
aI2
aI5
aI5
aI7
aI2
aI5
aI5
aI5
aI3
aI2
aI3
aI7
aI5
aI6
aI7
aI6
aI3
aI7
aI2
aI6
aI1
aI7
aI4
aI6
aI2
aI1
aI5
aI5
aI2
aI5
aI5
aI1
aI7
aI1
aI4
aI1
aI1
aI5
aI1
aI3
aI5
aI6
aI5
aI6
aI5
aI7
aI2
aI4
aI2
aI5
aI5
aI5
aI2
aI3
aI1
aI7
aI4
aI5
aI3
aI7
aI6
aI1
aI2
aI4
aI6
aI1
aI4
aI5
aI1
aI1
aI3
aI2
aI5
aI1
aI7
aI7
aI6
aI6
aI4
aI3
aI2
aI4
aI6
aI1
aI5
aI7
aI2
aI2
aI1
aI1
aI1
aI3
aI3
aI7
aI1
aI5
aI2
aI7
aI7
aI4
aI2
aI1
aI1
aI1
aI3
aI6
aI3
aI3
aI7
aI5
aI5
aI4
aI1
aI1
aI1
aI3
aI1
aI1
aI2
aI2
aI2
aI6
aI6
aI7
aI5
aI3
aI3
aI1
aI6
aI4
aI2
aI2
aI6
aI4
aI4
aI4
aI6
aI6
aI7
aI7
aI1
aI2
aI5
aI4
aI1
aI2
aI3
aI1
aI1
aI2
aI7
aI6
aI2
aI6
aI5
aI3
aI7
aI5
aI3
aI5
aI5
aI1
aI1
aI2
aI4
aI5
aI1
aI5
aI2
aI2
aI4
aI7
aI7
aI5
aI1
aI1
aI2
aI4
aI3
aI2
aI3
aI5
aI2
aI5
aI5
aI2
aI4
aI4
aI7
aI4
aI3
aI6
aI4
aI1
aI7
aI2
aI7
aI2
aI5
aI3
aI2
aI5
aI3
aI2
aI2
aI6
aI6
aI4
aI4
aI4
aI3
aI3
aI6
aI4
aI6
aI3
aI3
aI6
aI7
aI6
aI7
aI7
aI2
aI4
aI2
aI5
aI5
aI1
aI2
aI4
aI6
aI1
aI1
aI3
aI7
aI2
aI3
aI2
aI6
aI2
aI1
aI4
aI3
aI1
aI1
aI5
aI2
aI7
aI6
aI3
aI4
aI7
aI7
aI2
aI3
aI2
aI4
aI3
aI6
aI3
aI2
aI7
aI6
aI2
aI4
aI7
aI4
aI4
aI1
aI7
aI5
aI4
aI3
aI7
aI5
aI6
aI7
aI1
aI3
aI1
aI5
aI2
aI4
aI1
aI5
aI3
aI4
aI7
aI7
aI5
aI2
aI4
aI7
aI6
aI7
aI3
aI2
aI3
aI7
aI6
aI5
aI5
aI4
aI4
aI1
aI6
aI3
aI3
aI7
aI5
aI1
aI2
aI4
aI1
aI4
aI1
aI2
aI4
aI6
aI5
aI6
aI7
aI3
aI1
aI4
aI2
aI6
aI3
aI1
aI5
aI3
aI4
aI5
aI1
aI3
aI5
aI6
aI7
aI1
aI2
aI7
aI5
aI1
aI4
aI3
aI6
aI7
aI7
aI2
aI2
aI3
aI6
aI7
aI6
aI5
aI1
aI7
aI6
aI1
aI3
aI4
aI6
aI7
aI3
aI1
aI2
aI7
aI7
aI2
aI2
aI6
aI6
aI4
aI3
aI1
aI6
aI6
aI4
aI4
aI4
aI3
aI1
aI6
aI6
aI2
aI2
aI6
aI5
aI7
aI5
aI1
aI4
aI6
aI3
aI3
aI7
aI3
aI3
aI1
aI1
aI2
aI1
aI3
aI1
aI5
aI1
aI6
aI3
aI4
aI4
aI7
aI4
aI4
aI1
aI2
aI2
aI2
aI1
aI1
aI2
aI3
aI1
aI2
aI5
aI3
aI1
aI5
aI6
aI4
aI7
aI2
aI3
aI7
aI3
aI6
aI5
aI7
aI6
aI1
aI6
aI2
aI3
aI1
aI4
aI1
aI3
aI7
aI6
aI7
aI7
aI5
aI1
aI4
aI2
aI7
aI3
aI7
aI6
aI6
aI1
aI3
aI1
aI6
aI7
aI2
aI3
aI1
aI5
aI7
aI2
aI6
aI1
aI3
aI7
aI1
aI1
aI7
aI2
aI6
aI5
aI4
aI2
aI4
aI3
aI4
aI5
aI6
aI1
aI5
aI2
aI2
aI5
aI1
aI3
aI6
aI3
aI3
aI3
aI4
aI1
aI1
aI7
aI6
aI1
aI1
aI6
aI1
aI7
aI6
aI2
aI5
aI4
aI7
aI6
aI2
aI2
aI5
aI4
aI7
aI6
aI6
aI5
aI6
aI5
aI1
aI3
aI7
aI7
aI6
aI4
aI2
aI2
aI2
aI7
aI4
aI3
aI5
aI3
aI3
aI3
aI4
aI6
aI6
aI7
aI3
aI5
aI2
aI5
aI6
aI2
aI2
aI3
aI3
aI6
aI3
aI3
aI1
aI5
aI6
aI2
aI5
aI3
aI7
aI3
aI2
aI4
aI6
aI6
aI1
aI6
aI6
aI2
aI4
aI7
aI4
aI4
aI6
aI1
aI3
aI4
aI7
aI3
aI5
aI2
aI7
aI3
aI2
aI6
aI5
aI7
aI4
aI6
aI5
aI5
aI7
aI5
aI6
aI3
aI2
aI2
aI4
aI3
aI6
aI4
aI6
aI4
aI7
aI7
aI3
aI1
aI5
aI1
aI5
aI7
aI1
aI2
aI7
aI3
aI1
aI7
aI4
aI3
aI7
aI2
aI6
aI7
aI1
aI4
aI4
aI3
aI7
aI2
aI6
aI3
aI5
aI5
aI5
aI1
aI7
aI2
aI7
aI3
aI5
aI5
aI1
aI4
aI3
aI5
aI6
aI7
aI1
aI4
aI1
aI6
aI3
aI5
aI5
aI5
aI5
aI7
aI6
aI2
aI7
aI5
aI3
aI2
aI1
aI5
aI2
aI3
aI4
aI7
aI4
aI2
aI6
aI6
aI5
aI3
aI1
aI2
aI4
aI4
aI6
aI5
aI5
aI1
aI7
aI3
aI2
aI5
aI2
aI7
aI5
aI4
aI4
aI4
aI1
aI2
aI1
aI3
aI1
aI4
aI7
aI4
aI6
aI4
aI7
aI2
aI4
aI5
aI3
aI2
aI2
aI2
aI2
aI7
aI2
aI4
aI3
aI6
aI2
aI1
aI2
aI3
aI1
aI3
aI3
aI7
aI3
aI3
aI5
aI3
aI6
aI1
aI2
aI1
aI6
aI2
aI1
aI1
aI6
aI1
aI7
aI2
aI6
aI3
aI5
aI7
aI6
aI3
aI4
aI3
aI6
aI5
aI6
aI4
aI1
aI3
aI6
aI5
aI3
aI7
aI4
aI5
aI7
aI2
aI7
aI7
aI6
aI7
aI2
aI6
aI6
aI6
aI6
aI5
aI7
aI1
aI6
aI6
aI7
aI4
aI2
aI4
aI2
aI1
aI7
aI6
aI5
aI4
aI4
aI6
aI3
aI5
aI7
aI6
aI4
aI4
aI7
aI3
aI6
aI6
aI5
aI1
aI4
aI3
aI7
aI4
aI4
aI1
aI1
aI1
aI4
aI5
aI3
aI3
aI5
aI2
aI6
aI6
aI4
aI6
aI2
aI1
aI3
aI1
aI1
aI2
aI7
aI6
aI7
aI3
aI5
aI5
aI2
aI6
aI2
aI3
aI6
aI3
aI1
aI1
aI7
aI2
aI3
aI6
aI3
aI4
aI4
aI7
aI4
aI6
aI2
aI1
aI4
aI5
aI6
aI1
aI3
aI1
aI1
aI5
aI1
aI4
aI1
aI3
aI6
aI5
aI6
aI5
aI5
aI6
aI1
aI2
aI6
aI3
aI7
aI3
aI5
aI6
aI1
aI6
aI1
aI6
aI2
aI7
aI6
aI7
aI1
aI2
aI3
aI2
aI4
aI1
aI7
aI1
aI3
aI5
aI4
aI3
aI2
aI6
aI4
aI3
aI5
aI1
aI3
aI3
aI6
aI6
aI6
aI5
aI7
aI2
aI5
aI1
aI5
aI7
aI1
aI7
aI4
aI6
aI7
aI5
aI3
aI2
aI1
aI7
aI3
aI1
aI2
aI5
aI4
aI2
aI7
aI2
aI6
aI4
aI7
aI7
aI4
aI4
aI2
aI3
aI2
aI4
aI1
aI3
aI7
aI3
aI5
aI5
aI4
aI5
aI3
aI4
aI5
aI6
aI1
aI1
aI1
aI7
aI3
aI1
aI7
aI2
aI2
aI7
aI5
aI4
aI2
aI2
aI2
aI6
aI4
aI5
aI6
aI7
aI3
aI6
aI4
aI1
aI3
aI1
aI5
aI1
aI4
aI4
aI4
aI2
aI5
aI3
aI7
aI6
aI7
aI5
aI6
aI4
aI6
aI6
aI2
aI1
aI5
aI7
aI4
aI2
aI1
aI2
aI7
aI6
aI4
aI2
aI7
aI4
aI1
aI7
aI2
aI1
aI6
aI5
aI4
aI1
aI7
aI6
aI6
aI1
aI6
aI7
aI5
aI7
aI2
aI4
aI4
aI1
aI7
aI4
aI3
aI7
aI7
aI4
aI6
aI5
aI6
aI5
aI7
aI4
aI2
aI4
aI2
aI3
aI2
aI7
aI4
aI1
aI3
aI6
aI3
aI4
aI1
aI5
aI7
aI6
aI1
aI7
aI7
aI6
aI1
aI6
aI3
aI2
aI3
aI7
aI6
aI3
aI2
aI4
aI4
aI4
aI4
aI7
aI7
aI4
aI5
aI6
aI2
aI5
aI6
aI7
aI7
aI2
aI2
aI4
aI2
aI3
aI6
aI5
aI5
aI2
aI1
aI6
aI6
aI7
aI7
aI5
aI6
aI4
aI2
aI3
aI4
aI7
aI7
aI6
aI6
aI2
aI3
aI6
aI4
aI6
aI3
aI4
aI3
aI5
aI1
aI1
aI7
aI6
aI5
aI5
aI3
aI3
aI3
aI4
aI7
aI5
aI1
aI7
aI3
aI7
aI3
aI6
aI6
aI3
aI3
aI1
aI7
aI3
aI1
aI4
aI6
aI5
aI5
aI7
aI1
aI4
aI4
aI3
aI4
aI7
aI4
aI2
aI2
aI2
aI6
aI5
aI1
aI7
aI2
aI6
aI5
aI7
aI1
aI3
aI3
aI1
aI2
aI4
aI2
aI3
aI5
aI3
aI5
aI6
aI2
aI2
aI1
aI7
aI5
aI7
aI4
aI1
aI6
aI1
aI4
aI6
aI4
aI6
aI4
aI2
aI6
aI6
aI7
aI2
aI1
aI3
aI5
aI2
aI7
aI3
aI6
aI6
aI6
aI4
aI7
aI5
aI7
aI4
aI2
aI6
aI3
aI1
aI4
aI7
aI3
aI6
aI3
aI7
aI4
aI1
aI5
aI7
aI1
aI7
aI3
aI3
aI7
aI7
aI3
aI3
aI1
aI7
aI3
aI4
aI5
aI6
aI3
aI6
aI4
aI6
aI3
aI3
aI3
aI7
aI6
aI7
aI1
aI7
aI5
aI7
aI7
aI2
aI6
aI6
aI3
aI4
aI2
aI4
aI6
aI1
aI1
aI2
aI5
aI4
aI5
aI4
aI5
aI5
aI2
aI2
aI3
aI4
aI6
aI5
aI4
aI3
aI7
aI6
aI2
aI4
aI4
aI2
aI2
aI2
aI3
aI5
aI4
aI6
aI7
aI4
aI6
aI4
aI2
aI1
aI1
aI4
aI2
aI4
aI4
aI1
aI7
aI7
aI4
aI1
aI4
aI2
aI3
aI2
aI3
aI5
aI6
aI7
aI6
aI5
aI2
aI6
aI6
aI3
aI1
aI4
aI1
aI6
aI5
aI5
aI7
aI1
aI1
aI4
aI2
aI1
aI7
aI1
aI2
aI5
aI2
aI6
aI7
aI2
aI5
aI2
aI7
aI3
aI2
aI4
aI1
aI3
aI3
aI4
aI4
aI2
aI2
aI5
aI5
aI5
aI7
aI7
aI2
aI4
aI1
aI4
aI7
aI6
aI6
aI5
aI3
aI2
aI5
aI3
aI3
aI4
aI5
aI1
aI1
aI1
aI4
aI6
aI6
aI6
aI3
aI6
aI1
aI6
aI2
aI1
aI4
aI3
aI7
aI7
aI3
aI1
aI6
aI7
aI2
aI2
aI7
aI2
aI3
aI6
aI3
aI3
aI1
aI3
aI2
aI4
aI2
aI3
aI2
aI7
aI5
aI5
aI7
aI4
aI3
aI2
aI6
aI1
aI7
aI1
aI5
aI2
aI3
aI1
aI5
aI6
aI2
aI6
aI7
aI2
aI5
aI7
aI1
aI4
aI3
aI3
aI6
aI2
aI1
aI4
aI3
aI3
aI5
aI3
aI2
aI6
aI5
aI7
aI4
aI4
aI7
aI1
aI5
aI6
aI6
aI5
aI1
aI2
aI1
aI2
aI2
aI3
aI4
aI4
aI3
aI4
aI5
aI6
aI1
aI3
aI3
aI5
aI6
aI4
aI2
aI1
aI6
aI2
aI4
aI3
aI6
aI6
aI2
aI3
aI5
aI1
aI1
aI6
aI4
aI5
aI7
aI5
aI4
aI5
aI1
aI4
aI3
aI7
aI4
aI7
aI7
aI6
aI4
aI7
aI6
aI7
aI3
aI6
aI2
aI4
aI4
aI5
aI6
aI6
aI3
aI4
aI5
aI1
aI2
aI6
aI7
aI5
aI5
aI2
aI4
aI7
aI2
aI6
aI4
aI6
aI4
aI1
aI6
aI1
aI7
aI1
aI4
aI6
aI2
aI6
aI6
aI6
aI3
aI4
aI4
aI1
aI3
aI4
aI6
aI1
aI4
aI7
aI4
aI6
aI5
aI7
aI5
aI1
aI4
aI4
aI6
aI5
aI1
aI6
aI2
aI1
aI5
aI6
aI6
aI5
aI6
aI5
aI3
aI2
aI2
aI7
aI7
aI3
aI3
aI4
aI5
aI5
aI3
aI5
aI6
aI2
aI2
aI2
aI6
aI7
aI2
aI2
aI1
aI3
aI1
aI6
aI2
aI2
aI6
aI4
aI6
aI3
aI3
aI2
aI1
aI4
aI1
aI3
aI5
aI1
aI3
aI6
aI7
aI6
aI5
aI3
aI4
aI3
aI3
aI6
aI7
aI7
aI7
aI3
aI7
aI6
aI2
aI2
aI3
aI2
aI7
aI4
aI2
aI1
aI2
aI3
aI5
aI7
aI4
aI2
aI6
aI7
aI3
aI6
aI7
aI3
aI5
aI4
aI1
aI7
aI7
aI1
aI4
aI6
aI1
aI2
aI4
aI1
aI3
aI2
aI3
aI2
aI6
aI5
aI4
aI3
aI2
aI5
aI6
aI6
aI3
aI1
aI1
aI5
aI2
aI1
aI2
aI2
aI3
aI3
aI5
aI6
aI1
aI6
aI2
aI7
aI6
aI6
aI7
aI5
aI7
aI3
aI6
aI4
aI7
aI6
aI5
aI1
aI4
aI7
aI5
aI3
aI4
aI3
aI2
aI5
aI5
aI7
aI6
aI1
aI5
aI1
aI3
aI3
aI2
aI4
aI1
aI6
aI4
aI4
aI2
aI6
aI1
aI6
aI6
aI2
aI7
aI3
aI5
aI2
aI1
aI1
aI3
aI7
aI6
aI4
aI6
aI7
aI1
aI2
aI1
aI5
aI7
aI1
aI3
aI5
aI2
aI4
aI1
aI6
aI4
aI1
aI2
aI7
aI2
aI5
aI5
aI7
aI3
aI1
aI6
aI1
aI3
aI1
aI5
aI3
aI3
aI1
aI3
aI5
aI5
aI1
aI1
aI4
aI2
aI2
aI2
aI5
aI1
aI2
aI6
aI5
aI6
aI6
aI4
aI4
aI7
aI3
aI6
aI5
aI6
aI3
aI1
aI1
aI4
aI2
aI5
aI2
aI5
aI4
aI1
aI7
aI7
aI4
aI5
aI6
aI5
aI4
aI1
aI3
aI6
aI1
aI2
aI2
aI2
aI6
aI7
aI7
aI3
aI1
aI6
aI4
aI4
aI3
aI4
aI2
aI5
aI4
aI6
aI2
aI7
aI1
aI5
aI7
aI5
aI1
aI7
aI3
aI1
aI7
aI5
aI1
aI7
aI4
aI2
aI3
aI2
aI2
aI2
aI7
aI3
aI5
aI7
aI2
aI1
aI4
aI6
aI4
aI3
aI2
aI7
aI6
aI1
aI1
aI2
aI1
aI3
aI6
aI7
aI4
aI3
aI1
aI5
aI4
aI6
aI5
aI2
aI2
aI6
aI2
aI4
aI2
aI6
aI2
aI2
aI2
aI6
aI5
aI1
aI4
aI6
aI7
aI2
aI6
aI7
aI3
aI1
aI5
aI6
aI2
aI7
aI1
aI5
aI4
aI6
aI1
aI6
aI5
aI7
aI1
aI2
aI2
aI5
aI3
aI5
aI5
aI1
aI4
aI6
aI4
aI4
aI7
aI1
aI2
aI4
aI2
aI7
aI6
aI5
aI5
aI2
aI4
aI4
aI2
aI5
aI1
aI5
aI1
aI4
aI5
aI4
aI7
aI7
aI4
aI1
aI6
aI5
aI1
aI4
aI6
aI7
aI3
aI2
aI1
aI7
aI7
aI6
aI2
aI2
aI5
aI4
aI3
aI5
aI2
aI2
aI3
aI3
aI6
aI6
aI6
aI6
aI4
aI4
aI7
aI2
aI6
aI1
aI6
aI3
aI7
aI2
aI5
aI5
aI1
aI6
aI4
aI4
aI7
aI7
aI3
aI3
aI2
aI7
aI3
aI3
aI6
aI1
aI6
aI1
aI3
aI5
aI4
aI4
aI4
aI2
aI2
aI4
aI4
aI7
aI4
aI1
aI2
aI1
aI1
aI7
aI1
aI5
aI4
aI5
aI3
aI2
aI1
aI4
aI7
aI3
aI1
aI1
aI2
aI6
aI1
aI2
aI1
aI3
aI7
aI6
aI7
aI1
aI2
aI7
aI7
aI6
aI3
aI2
aI4
aI7
aI2
aI6
aI6
aI3
aI2
aI2
aI5
aI1
aI5
aI1
aI1
aI6
aI5
aI4
aI2
aI2
aI7
aI4
aI6
aI3
aI5
aI1
aI5
aI1
aI4
aI4
aI3
aI2
aI1
aI6
aI6
aI2
aI7
aI6
aI1
aI2
aI6
aI5
aI5
aI3
aI3
aI2
aI7
aI1
aI6
aI3
aI5
aI6
aI2
aI3
aI2
aI3
aI1
aI3
aI3
aI7
aI6
aI3
aI6
aI4
aI5
aI3
aI3
aI2
aI6
aI6
aI2
aI6
aI1
aI6
aI4
aI3
aI3
aI3
aI4
aI5
aI5
aI4
aI1
aI3
aI1
aI6
aI7
aI1
aI7
aI6
aI2
aI2
aI4
aI3
aI1
aI5
aI3
aI5
aI2
aI6
aI6
aI4
aI1
aI2
aI4
aI2
aI7
aI2
aI7
aI3
aI7
aI6
aI2
aI7
aI5
aI5
aI6
aI6
aI4
aI4
aI3
aI6
aI7
aI3
aI3
aI1
aI7
aI6
aI6
aI5
aI4
aI7
aI6
aI3
aI2
aI1
aI5
aI3
aI1
aI3
aI3
aI2
aI1
aI7
aI1
aI6
aI6
aI6
aI4
aI6
aI2
aI4
aI3
aI2
aI3
aI4
aI6
aI6
aI1
aI7
aI2
aI4
aI7
aI4
aI2
aI2
aI7
aI3
aI4
aI6
aI4
aI3
aI6
aI3
aI6
aI2
aI2
aI3
aI5
aI7
aI3
aI4
aI7
aI2
aI2
aI4
aI6
aI1
aI4
aI7
aI4
aI2
aI1
aI2
aI5
aI2
aI6
aI5
aI1
aI5
aI2
aI1
aI1
aI5
aI4
aI7
aI5
aI1
aI1
aI4
aI4
aI2
aI1
aI5
aI5
aI6
aI2
aI5
aI4
aI6
aI4
aI4
aI6
aI3
aI5
aI4
aI7
aI7
aI1
aI3
aI4
aI4
aI7
aI3
aI6
aI7
aI1
aI7
aI2
aI2
aI6
aI1
aI4
aI1
aI4
aI6
aI5
aI3
aI6
aI3
aI1
aI1
aI4
aI4
aI6
aI3
aI3
aI5
aI5
aI1
aI7
aI2
aI6
aI2
aI2
aI5
aI4
aI4
aI1
aI3
aI2
aI2
aI4
aI4
aI2
aI4
aI7
aI1
aI6
aI6
aI4
aI3
aI4
aI4
aI3
aI1
aI5
aI6
aI4
aI1
aI6
aI3
aI3
aI2
aI6
aI2
aI3
aI4
aI2
aI1
aI4
aI2
aI4
aI4
aI1
aI5
aI7
aI4
aI7
aI1
aI1
aI2
aI6
aI6
aI5
aI3
aI6
aI1
aI2
aI2
aI2
aI7
aI3
aI5
aI4
aI2
aI6
aI4
aI4
aI3
aI2
aI7
aI5
aI3
aI1
aI1
aI7
aI5
aI6
aI5
aI5
aI1
aI2
aI4
aI6
aI1
aI6
aI1
aI2
aI4
aI5
aI5
aI1
aI3
aI6
aI3
aI7
aI6
aI4
aI6
aI6
aI2
aI1
aI4
aI1
aI4
aI6
aI5
aI6
aI5
aI1
aI4
aI7
aI4
aI5
aI5
aI6
aI5
aI5
aI5
aI7
aI7
aI2
aI2
aI6
aI3
aI5
aI2
aI4
aI4
aI5
aI5
aI6
aI3
aI4
aI6
aI3
aI2
aI2
aI3
aI6
aI3
aI5
aI1
aI5
aI5
aI3
aI7
aI3
aI7
aI7
aI6
aI5
aI3
aI3
aI4
aI6
aI1
aI6
aI3
aI5
aI1
aI2
aI1
aI6
aI5
aI7
aI7
aI4
aI6
aI1
aI2
aI6
aI2
aI7
aI7
aI2
aI1
aI6
aI7
aI6
aI7
aI6
aI3
aI7
aI2
aI7
aI6
aI5
aI6
aI7
aI6
aI6
aI2
aI2
aI6
aI2
aI7
aI3
aI1
aI6
aI5
aI7
aI5
aI5
aI5
aI5
aI1
aI2
aI7
aI6
aI5
aI7
aI7
aI1
aI5
aI5
aI6
aI4
aI1
aI4
aI6
aI2
aI2
aI3
aI3
aI5
aI3
aI1
aI2
aI2
aI5
aI5
aI3
aI6
aI1
aI6
aI1
aI3
aI7
aI6
aI2
aI1
aI6
aI5
aI6
aI2
aI2
aI2
aI6
aI3
aI6
aI2
aI2
aI2
aI3
aI2
aI5
aI2
aI7
aI3
aI1
aI1
aI3
aI4
aI6
aI7
aI5
aI3
aI1
aI5
aI5
aI6
aI7
aI3
aI4
aI4
aI2
aI7
aI3
aI7
aI7
aI2
aI4
aI4
aI5
aI6
aI7
aI1
aI5
aI6
aI2
aI2
aI4
aI5
aI4
aI4
aI2
aI3
aI1
aI5
aI4
aI3
aI3
aI6
aI4
aI1
aI1
aI3
aI3
aI2
aI7
aI6
aI7
aI3
aI5
aI6
aI6
aI3
aI6
aI3
aI2
aI1
aI6
aI4
aI2
aI1
aI3
aI4
aI3
aI1
aI3
aI7
aI5
aI4
aI6
aI4
aI3
aI4
aI3
aI3
aI2
aI2
aI7
aI5
aI3
aI7
aI7
aI2
aI3
aI3
aI5
aI6
aI6
aI2
aI3
aI5
aI1
aI5
aI4
aI6
aI3
aI1
aI2
aI4
aI5
aI1
aI1
aI5
aI4
aI1
aI6
aI7
aI1
aI4
aI4
aI5
aI5
aI4
aI4
aI2
aI4
aI1
aI1
aI3
aI1
aI4
aI1
aI2
aI7
aI4
aI6
aI4
aI2
aI5
aI4
aI2
aI6
aI6
aI4
aI5
aI2
aI6
aI6
aI2
aI2
aI2
aI7
aI1
aI5
aI7
aI1
aI7
aI3
aI7
aI3
aI7
aI6
aI2
aI5
aI5
aI1
aI7
aI3
aI1
aI5
aI6
aI2
aI3
aI1
aI6
aI2
aI3
aI6
aI4
aI5
aI7
aI3
aI3
aI4
aI1
aI6
aI4
aI4
aI3
aI3
aI5
aI2
aI1
aI2
aI4
aI3
aI6
aI2
aI4
aI2
aI1
aI7
aI5
aI7
aI2
aI7
aI2
aI3
aI4
aI4
aI6
aI5
aI6
aI2
aI7
aI2
aI6
aI3
aI2
aI5
aI3
aI2
aI4
aI3
aI6
aI3
aI4
aI4
aI3
aI3
aI2
aI5
aI7
aI7
aI2
aI3
aI1
aI6
aI6
aI6
aI1
aI7
aI4
aI2
aI7
aI3
aI1
aI4
aI4
aI3
aI2
aI4
aI6
aI5
aI2
aI3
aI7
aI2
aI4
aI3
aI6
aI4
aI3
aI4
aI6
aI7
aI6
aI6
aI2
aI2
aI1
aI7
aI5
aI2
aI1
aI4
aI6
aI3
aI4
aI1
aI6
aI5
aI5
aI4
aI4
aI2
aI3
aI2
aI3
aI2
aI7
aI1
aI5
aI2
aI2
aI5
aI3
aI2
aI2
aI3
aI2
aI1
aI4
aI2
aI7
aI7
aI2
aI7
aI2
aI3
aI5
aI5
aI4
aI5
aI6
aI7
aI5
aI4
aI1
aI2
aI3
aI7
aI4
aI5
aI3
aI7
aI7
aI2
aI1
aI1
aI6
aI2
aI3
aI1
aI7
aI3
aI6
aI4
aI4
aI4
aI7
aI5
aI7
aI2
aI1
aI6
aI2
aI1
aI1
aI3
aI7
aI6
aI3
aI6
aI5
aI3
aI7
aI6
aI6
aI5
aI1
aI5
aI1
aI5
aI3
aI3
aI7
aI3
aI5
aI6
aI1
aI3
aI2
aI2
aI7
aI7
aI6
aI4
aI7
aI6
aI1
aI1
aI6
aI7
aI3
aI7
aI5
aI5
aI1
aI7
aI7
aI1
aI7
aI2
aI6
aI2
aI1
aI6
aI5
aI4
aI3
aI1
aI3
aI7
aI5
aI2
aI5
aI7
aI2
aI7
aI4
aI7
aI1
aI2
aI4
aI5
aI3
aI3
aI4
aI1
aI3
aI3
aI6
aI7
aI2
aI5
aI3
aI1
aI7
aI3
aI4
aI2
aI1
aI4
aI1
aI1
aI7
aI2
aI6
aI6
aI2
aI4
aI6
aI6
aI4
aI4
aI5
aI7
aI4
aI7
aI5
aI2
aI5
aI3
aI4
aI5
aI4
aI3
aI6
aI5
aI7
aI4
aI1
aI4
aI2
aI4
aI3
aI2
aI5
aI7
aI5
aI6
aI4
aI1
aI3
aI2
aI1
aI5
aI7
aI4
aI5
aI5
aI7
aI4
aI3
aI3
aI4
aI3
aI6
aI1
aI3
aI4
aI1
aI4
aI7
aI5
aI3
aI7
aI6
aI6
aI6
aI6
aI5
aI5
aI7
aI4
aI1
aI5
aI5
aI5
aI1
aI6
aI7
aI3
aI7
aI6
aI5
aI4
aI4
aI4
aI4
aI1
aI3
aI7
aI7
aI2
aI3
aI3
aI6
aI4
aI2
aI7
aI2
aI4
aI2
aI5
aI5
aI7
aI1
aI3
aI6
aI6
aI1
aI2
aI7
aI1
aI7
aI7
aI1
aI1
aI2
aI3
aI3
aI1
aI4
aI1
aI5
aI6
aI6
aI7
aI1
aI2
aI1
aI6
aI5
aI5
aI3
aI1
aI2
aI7
aI5
aI7
aI3
aI2
aI6
aI6
aI7
aI4
aI5
aI6
aI5
aI6
aI1
aI2
aI2
aI4
aI2
aI3
aI4
aI6
aI2
aI3
aI7
aI5
aI6
aI6
aI2
aI2
aI3
aI4
aI7
aI5
aI5
aI6
aI3
aI1
aI7
aI1
aI4
aI4
aI3
aI4
aI3
aI5
aI7
aI1
aI1
aI6
aI2
aI5
aI5
aI1
aI7
aI1
aI1
aI7
aI4
aI5
aI2
aI6
aI4
aI6
aI1
aI6
aI3
aI2
aI1
aI4
aI2
aI6
aI3
aI4
aI3
aI4
aI3
aI6
aI4
aI3
aI5
aI3
aI7
aI6
aI6
aI7
aI1
aI3
aI4
aI6
aI7
aI6
aI6
aI6
aI3
aI1
aI3
aI1
aI5
aI2
aI3
aI7
aI5
aI4
aI2
aI5
aI4
aI6
aI5
aI5
aI4
aI2
aI7
aI2
aI1
aI2
aI3
aI5
aI2
aI6
aI1
aI7
aI5
aI1
aI4
aI1
aI3
aI4
aI4
aI6
aI1
aI3
aI2
aI5
aI3
aI5
aI6
aI1
aI3
aI3
aI1
aI6
aI3
aI7
aI1
aI6
aI3
aI5
aI3
aI7
aI5
aI5
aI7
aI5
aI2
aI3
aI7
aI5
aI3
aI2
aI6
aI7
aI5
aI6
aI1
aI1
aI4
aI4
aI5
aI7
aI2
aI6
aI5
aI4
aI7
aI2
aI6
aI6
aI5
aI2
aI2
aI7
aI5
aI4
aI2
aI5
aI3
aI7
aI7
aI7
aI3
aI7
aI3
aI5
aI6
aI1
aI5
aI7
aI4
aI4
aI4
aI5
aI5
aI1
aI5
aI5
aI2
aI4
aI6
aI3
aI6
aI5
aI3
aI1
aI5
aI5
aI6
aI4
aI4
aI2
aI1
aI1
aI3
aI3
aI3
aI1
aI5
aI7
aI2
aI3
aI2
aI3
aI1
aI7
aI5
aI7
aI3
aI4
aI6
aI3
aI1
aI4
aI7
aI4
aI5
aI2
aI6
aI5
aI6
aI1
aI2
aI1
aI7
aI6
aI7
aI7
aI2
aI3
aI3
aI2
aI7
aI5
aI4
aI4
aI6
aI1
aI4
aI4
aI4
aI6
aI1
aI4
aI6
aI4
aI3
aI4
aI7
aI5
aI5
aI1
aI1
aI7
aI5
aI7
aI4
aI6
aI4
aI4
aI2
aI6
aI7
aI4
aI7
aI7
aI6
aI6
aI3
aI3
aI7
aI2
aI4
aI7
aI3
aI1
aI5
aI1
aI4
aI6
aI2
aI2
aI4
aI3
aI2
aI6
aI1
aI3
aI2
aI2
aI3
aI5
aI7
aI6
aI5
aI3
aI6
aI1
aI6
aI6
aI2
aI7
aI7
aI1
aI4
aI7
aI2
aI3
aI4
aI1
aI6
aI4
aI4
aI7
aI7
aI2
aI2
aI4
aI4
aI5
aI4
aI7
aI4
aI3
aI3
aI7
aI5
aI7
aI3
aI5
aI6
aI4
aI5
aI1
aI2
aI1
aI7
aI6
aI6
aI7
aI3
aI3
aI6
aI4
aI6
aI1
aI4
aI5
aI5
aI2
aI1
aI3
aI1
aI4
aI4
aI1
aI7
aI3
aI2
aI5
aI6
aI6
aI5
aI2
aI2
aI2
aI5
aI4
aI4
aI1
aI1
aI7
aI5
aI7
aI5
aI5
aI2
aI5
aI2
aI1
aI6
aI5
aI2
aI7
aI3
aI4
aI7
aI2
aI4
aI6
aI3
aI4
aI1
aI1
aI3
aI5
aI3
aI4
aI3
aI1
aI2
aI7
aI4
aI3
aI1
aI7
aI1
aI4
aI5
aI2
aI2
aI1
aI4
aI7
aI2
aI7
aI3
aI6
aI4
aI6
aI3
aI3
aI5
aI2
aI3
aI6
aI1
aI2
aI5
aI4
aI3
aI7
aI6
aI7
aI5
aI4
aI6
aI7
aI1
aI3
aI3
aI4
aI6
aI2
aI1
aI6
aI5
aI2
aI4
aI1
aI6
aI5
aI1
aI4
aI2
aI6
aI4
aI7
aI5
aI2
aI2
aI1
aI6
aI2
aI3
aI2
aI3
aI3
aI5
aI1
aI6
aI5
aI2
aI1
aI4
aI6
aI3
aI6
aI6
aI5
aI7
aI4
aI6
aI1
aI7
aI6
aI7
aI6
aI1
aI5
aI1
aI6
aI3
aI1
aI7
aI5
aI5
aI2
aI6
aI2
aI5
aI4
aI6
aI4
aI5
aI2
aI3
aI1
aI3
aI7
aI7
aI4
aI6
aI3
aI3
aI7
aI5
aI4
aI6
aI5
aI1
aI6
aI7
aI3
aI1
aI1
aI6
aI6
aI6
aI2
aI7
aI1
aI4
aI3
aI7
aI2
aI7
aI5
aI2
aI5
aI7
aI4
aI3
aI5
aI1
aI5
aI6
aI3
aI3
aI2
aI1
aI7
aI1
aI5
aI6
aI2
aI7
aI1
aI6
aI5
aI7
aI4
aI5
aI7
aI7
aI2
aI3
aI4
aI1
aI5
aI4
aI4
aI6
aI2
aI3
aI7
aI1
aI5
aI7
aI5
aI5
aI6
aI2
aI3
aI1
aI5
aI2
aI3
aI4
aI6
aI7
aI3
aI1
aI2
aI7
aI4
aI1
aI5
aI1
aI2
aI3
aI6
aI3
aI7
aI1
aI5
aI6
aI5
aI5
aI7
aI3
aI3
aI7
aI2
aI1
aI1
aI2
aI3
aI2
aI7
aI5
aI2
aI7
aI2
aI2
aI3
aI2
aI7
aI1
aI2
aI7
aI4
aI7
aI3
aI2
aI2
aI3
aI2
aI4
aI6
aI6
aI2
aI1
aI5
aI7
aI5
aI1
aI5
aI2
aI6
aI1
aI6
aI7
aI3
aI4
aI1
aI3
aI5
aI1
aI6
aI2
aI1
aI7
aI3
aI6
aI6
aI3
aI1
aI2
aI5
aI5
aI4
aI1
aI5
aI6
aI1
aI4
aI2
aI2
aI7
aI3
aI4
aI7
aI1
aI5
aI4
aI3
aI2
aI4
aI3
aI4
aI7
aI3
aI5
aI6
aI1
aI2
aI6
aI3
aI5
aI7
aI6
aI3
aI7
aI6
aI3
aI7
aI7
aI7
aI5
aI3
aI4
aI4
aI2
aI5
aI4
aI2
aI5
aI1
aI7
aI5
aI2
aI6
aI1
aI1
aI6
aI2
aI1
aI6
aI5
aI2
aI7
aI3
aI4
aI6
aI6
aI6
aI5
aI7
aI3
aI3
aI2
aI4
aI1
aI7
aI2
aI3
aI4
aI7
aI3
aI6
aI5
aI7
aI6
aI7
aI6
aI7
aI7
aI4
aI4
aI3
aI7
aI2
aI1
aI1
aI7
aI2
aI4
aI7
aI7
aI3
aI5
aI4
aI4
aI2
aI1
aI2
aI7
aI5
aI5
aI2
aI2
aI6
aI5
aI3
aI4
aI3
aI1
aI4
aI3
aI4
aI5
aI5
aI2
aI5
aI7
aI7
aI4
aI6
aI7
aI5
aI3
aI7
aI2
aI4
aI6
aI3
aI3
aI6
aI6
aI5
aI1
aI7
aI3
aI5
aI5
aI6
aI5
aI7
aI5
aI2
aI7
aI5
aI3
aI4
aI6
aI3
aI6
aI6
aI2
aI1
aI2
aI5
aI2
aI6
aI7
aI4
aI2
aI4
aI5
aI6
aI2
aI2
aI3
aI4
aI7
aI7
aI5
aI1
aI1
aI3
aI7
aI3
aI1
aI6
aI4
aI6
aI5
aI2
aI6
aI4
aI6
aI1
aI4
aI2
aI3
aI4
aI5
aI1
aI1
aI5
aI3
aI4
aI7
aI1
aI6
aI3
aI6
aI4
aI7
aI7
aI2
aI5
aI7
aI1
aI4
aI4
aI1
aI5
aI1
aI3
aI1
aI1
aI6
aI2
aI1
aI2
aI4
aI6
aI2
aI2
aI2
aI1
aI3
aI4
aI1
aI5
aI2
aI1
aI1
aI1
aI1
aI2
aI6
aI4
aI5
aI1
aI4
aI7
aI6
aI4
aI1
aI6
aI3
aI3
aI4
aI7
aI5
aI4
aI7
aI3
aI2
aI6
aI5
aI5
aI5
aI7
aI1
aI1
aI5
aI4
aI4
aI1
aI1
aI2
aI5
aI2
aI4
aI2
aI6
aI3
aI6
aI4
aI4
aI2
aI7
aI1
aI1
aI2
aI7
aI6
aI3
aI5
aI5
aI1
aI4
aI4
aI5
aI2
aI5
aI6
aI7
aI7
aI3
aI2
aI2
aI6
aI1
aI4
aI1
aI5
aI5
aI5
aI6
aI7
aI5
aI5
aI7
aI5
aI1
aI5
aI4
aI4
aI1
aI7
aI1
aI2
aI2
aI7
aI5
aI7
aI1
aI4
aI5
aI4
aI6
aI7
aI6
aI7
aI5
aI3
aI5
aI5
aI6
aI5
aI3
aI7
aI7
aI7
aI5
aI1
aI6
aI1
aI4
aI5
aI4
aI6
aI5
aI1
aI7
aI2
aI7
aI5
aI7
aI2
aI4
aI7
aI5
aI7
aI7
aI6
aI4
aI2
aI5
aI2
aI3
aI1
aI5
aI1
aI4
aI1
aI3
aI7
aI7
aI1
aI5
aI1
aI4
aI3
aI2
aI4
aI5
aI2
aI6
aI3
aI1
aI3
aI5
aI4
aI3
aI3
aI5
aI6
aI6
aI7
aI4
aI5
aI5
aI5
aI1
aI2
aI5
aI3
aI7
aI4
aI5
aI6
aI3
aI5
aI6
aI7
aI5
aI1
aI2
aI6
aI3
aI5
aI7
aI1
aI5
aI5
aI6
aI6
aI2
aI6
aI1
aI2
aI1
aI4
aI6
aI1
aI3
aI5
aI1
aI2
aI7
aI7
aI4
aI2
aI4
aI5
aI5
aI6
aI6
aI4
aI1
aI1
aI5
aI7
aI1
aI3
aI3
aI1
aI5
aI7
aI3
aI6
aI1
aI1
aI7
aI6
aI7
aI4
aI4
aI1
aI7
aI1
aI2
aI7
aI4
aI7
aI4
aI6
aI5
aI7
aI3
aI7
aI4
aI1
aI5
aI7
aI4
aI5
aI6
aI2
aI3
aI1
aI3
aI7
aI5
aI5
aI1
aI7
aI5
aI6
aI3
aI1
aI7
aI6
aI4
aI7
aI6
aI2
aI3
aI5
aI3
aI4
aI7
aI3
aI4
aI6
aI7
aI4
aI5
aI2
aI3
aI4
aI3
aI6
aI4
aI1
aI1
aI1
aI7
aI2
aI6
aI1
aI1
aI1
aI1
aI5
aI5
aI4
aI4
aI6
aI5
aI4
aI7
aI2
aI2
aI7
aI2
aI4
aI7
aI6
aI6
aI4
aI6
aI7
aI1
aI3
aI2
aI6
aI4
aI1
aI3
aI7
aI7
aI4
aI2
aI4
aI2
aI4
aI6
aI2
aI3
aI3
aI6
aI3
aI4
aI1
aI5
aI3
aI3
aI6
aI2
aI5
aI6
aI5
aI6
aI5
aI5
aI6
aI5
aI4
aI3
aI4
aI3
aI6
aI5
aI5
aI5
aI6
aI2
aI2
aI3
aI1
aI4
aI6
aI3
aI4
aI6
aI1
aI5
aI4
aI6
aI2
aI4
aI6
aI1
aI7
aI7
aI6
aI3
aI3
aI1
aI4
aI7
aI1
aI5
aI7
aI4
aI2
aI2
aI7
aI3
aI5
aI5
aI3
aI3
aI5
aI1
aI3
aI5
aI2
aI5
aI6
aI4
aI7
aI7
aI5
aI6
aI6
aI4
aI7
aI1
aI1
aI7
aI2
aI7
aI5
aI4
aI7
aI2
aI3
aI4
aI1
aI6
aI7
aI2
aI4
aI1
aI5
aI6
aI7
aI5
aI2
aI3
aI3
aI5
aI3
aI2
aI1
aI2
aI1
aI6
aI5
aI5
aI5
aI3
aI1
aI7
aI5
aI6
aI7
aI6
aI3
aI4
aI2
aI4
aI3
aI7
aI7
aI7
aI4
aI2
aI3
aI2
aI3
aI4
aI5
aI6
aI7
aI7
aI3
aI7
aI7
aI2
aI1
aI4
aI4
aI3
aI7
aI3
aI3
aI7
aI1
aI3
aI2
aI4
aI5
aI1
aI7
aI2
aI1
aI5
aI6
aI5
aI5
aI6
aI1
aI3
aI5
aI4
aI1
aI4
aI1
aI2
aI7
aI5
aI2
aI2
aI1
aI5
aI5
aI2
aI1
aI7
aI7
aI6
aI7
aI6
aI2
aI3
aI1
aI4
aI7
aI4
aI6
aI2
aI1
aI3
aI7
aI7
aI3
aI4
aI4
aI6
aI6
aI1
aI2
aI5
aI6
aI4
aI2
aI5
aI2
aI5
aI6
aI6
aI4
aI2
aI3
aI3
aI2
aI2
aI5
aI5
aI2
aI3
aI7
aI1
aI4
aI4
aI2
aI3
aI7
aI6
aI2
aI7
aI2
aI3
aI1
aI6
aI6
aI7
aI2
aI1
aI2
aI5
aI2
aI2
aI7
aI2
aI5
aI1
aI7
aI2
aI3
aI1
aI3
aI6
aI6
aI5
aI2
aI5
aI6
aI3
aI1
a.